ARM GAS  C:\Users\clema\AppData\Local\Temp\ccZ8ibcy.s 			page 1


   1              		.cpu cortex-m4
   2              		.eabi_attribute 27, 1
   3              		.eabi_attribute 28, 1
   4              		.eabi_attribute 20, 1
   5              		.eabi_attribute 21, 1
   6              		.eabi_attribute 23, 3
   7              		.eabi_attribute 24, 1
   8              		.eabi_attribute 25, 1
   9              		.eabi_attribute 26, 1
  10              		.eabi_attribute 30, 2
  11              		.eabi_attribute 34, 1
  12              		.eabi_attribute 18, 4
  13              		.file	"main.c"
  14              		.text
  15              	.Ltext0:
  16              		.cfi_sections	.debug_frame
  17              		.section	.text.SendUint8ToComputer,"ax",%progbits
  18              		.align	1
  19              		.p2align 4,,15
  20              		.global	SendUint8ToComputer
  21              		.syntax unified
  22              		.thumb
  23              		.thumb_func
  24              		.fpu fpv4-sp-d16
  25              		.type	SendUint8ToComputer, %function
  26              	SendUint8ToComputer:
  27              	.LFB293:
  28              		.file 1 "main.c"
  29              		.loc 1 31 0
  30              		.cfi_startproc
  31              		@ args = 0, pretend = 0, frame = 16
  32              		@ frame_needed = 0, uses_anonymous_args = 0
  33              	.LVL0:
  34 0000 70B5     		push	{r4, r5, r6, lr}
  35              		.cfi_def_cfa_offset 16
  36              		.cfi_offset 4, -16
  37              		.cfi_offset 5, -12
  38              		.cfi_offset 6, -8
  39              		.cfi_offset 14, -4
  40              		.loc 1 32 0
  41 0002 124C     		ldr	r4, .L6
  42              		.loc 1 31 0
  43 0004 124D     		ldr	r5, .L6+4
  44              		.loc 1 32 0
  45 0006 2368     		ldr	r3, [r4]
  46              		.loc 1 31 0
  47 0008 2A68     		ldr	r2, [r5]
  48 000a 84B0     		sub	sp, sp, #16
  49              		.cfi_def_cfa_offset 32
  50              		.loc 1 31 0
  51 000c 0646     		mov	r6, r0
  52 000e ADF80610 		strh	r1, [sp, #6]	@ movhi
  53              		.loc 1 32 0
  54 0012 1B68     		ldr	r3, [r3]
  55 0014 0F49     		ldr	r1, .L6+8
  56              	.LVL1:
  57              		.loc 1 31 0
ARM GAS  C:\Users\clema\AppData\Local\Temp\ccZ8ibcy.s 			page 2


  58 0016 0392     		str	r2, [sp, #12]
  59              		.loc 1 32 0
  60 0018 2046     		mov	r0, r4
  61              	.LVL2:
  62 001a 0522     		movs	r2, #5
  63 001c 9847     		blx	r3
  64              	.LVL3:
  65              		.loc 1 33 0
  66 001e 2368     		ldr	r3, [r4]
  67 0020 0222     		movs	r2, #2
  68 0022 1B68     		ldr	r3, [r3]
  69 0024 0DF10601 		add	r1, sp, #6
  70 0028 2046     		mov	r0, r4
  71 002a 9847     		blx	r3
  72              	.LVL4:
  73              		.loc 1 34 0
  74 002c 2368     		ldr	r3, [r4]
  75 002e BDF80620 		ldrh	r2, [sp, #6]
  76 0032 1B68     		ldr	r3, [r3]
  77 0034 3146     		mov	r1, r6
  78 0036 2046     		mov	r0, r4
  79 0038 9847     		blx	r3
  80              	.LVL5:
  81              		.loc 1 35 0
  82 003a 039A     		ldr	r2, [sp, #12]
  83 003c 2B68     		ldr	r3, [r5]
  84 003e 9A42     		cmp	r2, r3
  85 0040 01D1     		bne	.L5
  86 0042 04B0     		add	sp, sp, #16
  87              		.cfi_remember_state
  88              		.cfi_def_cfa_offset 16
  89              		@ sp needed
  90 0044 70BD     		pop	{r4, r5, r6, pc}
  91              	.LVL6:
  92              	.L5:
  93              		.cfi_restore_state
  94 0046 FFF7FEFF 		bl	__stack_chk_fail
  95              	.LVL7:
  96              	.L7:
  97 004a 00BF     		.align	2
  98              	.L6:
  99 004c 00000000 		.word	SD3
 100 0050 00000000 		.word	__stack_chk_guard
 101 0054 00000000 		.word	.LC0
 102              		.cfi_endproc
 103              	.LFE293:
 104              		.size	SendUint8ToComputer, .-SendUint8ToComputer
 105              		.section	.text.startup.main,"ax",%progbits
 106              		.align	1
 107              		.p2align 4,,15
 108              		.global	main
 109              		.syntax unified
 110              		.thumb
 111              		.thumb_func
 112              		.fpu fpv4-sp-d16
 113              		.type	main, %function
 114              	main:
ARM GAS  C:\Users\clema\AppData\Local\Temp\ccZ8ibcy.s 			page 3


 115              	.LFB296:
 116              		.loc 1 73 0
 117              		.cfi_startproc
 118              		@ Volatile: function does not return.
 119              		@ args = 0, pretend = 0, frame = 8
 120              		@ frame_needed = 0, uses_anonymous_args = 0
 121 0000 00B5     		push	{lr}
 122              		.cfi_def_cfa_offset 4
 123              		.cfi_offset 14, -4
 124 0002 224B     		ldr	r3, .L12
 125 0004 83B0     		sub	sp, sp, #12
 126              		.cfi_def_cfa_offset 16
 127              		.loc 1 73 0
 128 0006 1B68     		ldr	r3, [r3]
 129 0008 0193     		str	r3, [sp, #4]
 130              		.loc 1 75 0
 131 000a FFF7FEFF 		bl	halInit
 132              	.LVL8:
 133              		.loc 1 76 0
 134 000e FFF7FEFF 		bl	chSysInit
 135              	.LVL9:
 136              		.loc 1 77 0
 137 0012 FFF7FEFF 		bl	mpu_init
 138              	.LVL10:
 139              	.LBB8:
 140              	.LBB9:
 141              		.loc 1 46 0
 142 0016 1E49     		ldr	r1, .L12+4
 143 0018 1E48     		ldr	r0, .L12+8
 144 001a FFF7FEFF 		bl	sdStart
 145              	.LVL11:
 146              	.LBE9:
 147              	.LBE8:
 148              		.loc 1 82 0
 149 001e FFF7FEFF 		bl	usb_start
 150              	.LVL12:
 151              		.loc 1 84 0
 152 0022 FFF7FEFF 		bl	dcmi_start
 153              	.LVL13:
 154              		.loc 1 85 0
 155 0026 FFF7FEFF 		bl	po8030_start
 156              	.LVL14:
 157              	.LBB10:
 158              	.LBB11:
 159              		.loc 1 66 0
 160 002a 1B49     		ldr	r1, .L12+12
 161 002c 1B48     		ldr	r0, .L12+16
 162 002e FFF7FEFF 		bl	gptStart
 163              	.LVL15:
 164              		.loc 1 68 0
 165 0032 4FF6FF71 		movw	r1, #65535
 166 0036 1948     		ldr	r0, .L12+16
 167 0038 FFF7FEFF 		bl	gptStartContinuous
 168              	.LVL16:
 169              	.LBE11:
 170              	.LBE10:
 171              		.loc 1 89 0
ARM GAS  C:\Users\clema\AppData\Local\Temp\ccZ8ibcy.s 			page 4


 172 003c FFF7FEFF 		bl	motors_init
 173              	.LVL17:
 174              		.loc 1 92 0
 175 0040 FFF7FEFF 		bl	spi_comm_start
 176              	.LVL18:
 177              		.loc 1 93 0
 178 0044 164A     		ldr	r2, .L12+20
 179 0046 1749     		ldr	r1, .L12+24
 180 0048 1748     		ldr	r0, .L12+28
 181 004a FFF7FEFF 		bl	messagebus_init
 182              	.LVL19:
 183              		.loc 1 94 0
 184 004e 0020     		movs	r0, #0
 185 0050 FFF7FEFF 		bl	po8030_set_awb
 186              	.LVL20:
 187              		.loc 1 100 0
 188 0054 FFF7FEFF 		bl	process_image_start
 189              	.LVL21:
 190              		.loc 1 101 0
 191 0058 0023     		movs	r3, #0
 192 005a 1A46     		mov	r2, r3
 193 005c FF21     		movs	r1, #255
 194 005e 0120     		movs	r0, #1
 195 0060 FFF7FEFF 		bl	set_rgb_led
 196              	.LVL22:
 197              		.loc 1 102 0
 198 0064 0023     		movs	r3, #0
 199 0066 1946     		mov	r1, r3
 200 0068 FF22     		movs	r2, #255
 201 006a 0220     		movs	r0, #2
 202 006c FFF7FEFF 		bl	set_rgb_led
 203              	.LVL23:
 204              		.loc 1 103 0
 205 0070 0022     		movs	r2, #0
 206 0072 0320     		movs	r0, #3
 207 0074 1146     		mov	r1, r2
 208 0076 FF23     		movs	r3, #255
 209 0078 FFF7FEFF 		bl	set_rgb_led
 210              	.LVL24:
 211              		.loc 1 113 0
 212 007c 0B48     		ldr	r0, .L12+32
 213 007e FFF7FEFF 		bl	mic_start
 214              	.LVL25:
 215              	.L9:
 216              		.loc 1 118 0 discriminator 1
 217 0082 4FF47A70 		mov	r0, #1000
 218 0086 FFF7FEFF 		bl	chThdSleep
 219              	.LVL26:
 220 008a FAE7     		b	.L9
 221              	.L13:
 222              		.align	2
 223              	.L12:
 224 008c 00000000 		.word	__stack_chk_guard
 225 0090 00000000 		.word	.LANCHOR0
 226 0094 00000000 		.word	SD3
 227 0098 00000000 		.word	.LANCHOR1
 228 009c 00000000 		.word	GPTD12
ARM GAS  C:\Users\clema\AppData\Local\Temp\ccZ8ibcy.s 			page 5


 229 00a0 00000000 		.word	.LANCHOR2
 230 00a4 00000000 		.word	.LANCHOR3
 231 00a8 00000000 		.word	.LANCHOR4
 232 00ac 00000000 		.word	processAudioData
 233              		.cfi_endproc
 234              	.LFE296:
 235              		.size	main, .-main
 236              		.section	.text.__stack_chk_fail,"ax",%progbits
 237              		.align	1
 238              		.p2align 4,,15
 239              		.global	__stack_chk_fail
 240              		.syntax unified
 241              		.thumb
 242              		.thumb_func
 243              		.fpu fpv4-sp-d16
 244              		.type	__stack_chk_fail, %function
 245              	__stack_chk_fail:
 246              	.LFB297:
 247              		.loc 1 179 0
 248              		.cfi_startproc
 249              		@ args = 0, pretend = 0, frame = 8
 250              		@ frame_needed = 0, uses_anonymous_args = 0
 251 0000 00B5     		push	{lr}
 252              		.cfi_def_cfa_offset 4
 253              		.cfi_offset 14, -4
 254 0002 084B     		ldr	r3, .L19
 255 0004 83B0     		sub	sp, sp, #12
 256              		.cfi_def_cfa_offset 16
 257              		.loc 1 179 0
 258 0006 1A68     		ldr	r2, [r3]
 259 0008 0192     		str	r2, [sp, #4]
 260              		.loc 1 180 0
 261 000a 019A     		ldr	r2, [sp, #4]
 262 000c 1B68     		ldr	r3, [r3]
 263 000e 9A42     		cmp	r2, r3
 264 0010 05D1     		bne	.L18
 265 0012 0548     		ldr	r0, .L19+4
 266              		.loc 1 181 0
 267 0014 03B0     		add	sp, sp, #12
 268              		.cfi_remember_state
 269              		.cfi_def_cfa_offset 4
 270              		@ sp needed
 271 0016 5DF804EB 		ldr	lr, [sp], #4
 272              		.cfi_restore 14
 273              		.cfi_def_cfa_offset 0
 274              		.loc 1 180 0
 275 001a FFF7FEBF 		b	chSysHalt
 276              	.LVL27:
 277              	.L18:
 278              		.cfi_restore_state
 279 001e FFF7FEFF 		bl	__stack_chk_fail
 280              	.LVL28:
 281              	.L20:
 282 0022 00BF     		.align	2
 283              	.L19:
 284 0024 00000000 		.word	__stack_chk_guard
 285 0028 00000000 		.word	.LC1
ARM GAS  C:\Users\clema\AppData\Local\Temp\ccZ8ibcy.s 			page 6


 286              		.cfi_endproc
 287              	.LFE297:
 288              		.size	__stack_chk_fail, .-__stack_chk_fail
 289              		.global	__stack_chk_guard
 290              		.global	bus_condvar
 291              		.global	bus_lock
 292              		.global	bus
 293              		.section	.bss.bus,"aw",%nobits
 294              		.align	2
 295              		.set	.LANCHOR4,. + 0
 296              		.type	bus, %object
 297              		.size	bus, 12
 298              	bus:
 299 0000 00000000 		.space	12
 299      00000000 
 299      00000000 
 300              		.section	.data.__stack_chk_guard,"aw",%progbits
 301              		.align	2
 302              		.type	__stack_chk_guard, %object
 303              		.size	__stack_chk_guard, 4
 304              	__stack_chk_guard:
 305 0000 96E3DEE2 		.word	-488709226
 306              		.section	.data.bus_condvar,"aw",%progbits
 307              		.align	2
 308              		.set	.LANCHOR2,. + 0
 309              		.type	bus_condvar, %object
 310              		.size	bus_condvar, 8
 311              	bus_condvar:
 312 0000 00000000 		.word	bus_condvar
 313 0004 00000000 		.word	bus_condvar
 314              		.section	.data.bus_lock,"aw",%progbits
 315              		.align	2
 316              		.set	.LANCHOR3,. + 0
 317              		.type	bus_lock, %object
 318              		.size	bus_lock, 20
 319              	bus_lock:
 320 0000 00000000 		.word	bus_lock
 321 0004 00000000 		.word	bus_lock
 322 0008 00000000 		.word	0
 323 000c 00000000 		.word	0
 324 0010 00000000 		.word	0
 325              		.section	.data.ser_cfg.14954,"aw",%progbits
 326              		.align	2
 327              		.set	.LANCHOR0,. + 0
 328              		.type	ser_cfg.14954, %object
 329              		.size	ser_cfg.14954, 12
 330              	ser_cfg.14954:
 331 0000 00C20100 		.word	115200
 332 0004 0000     		.short	0
 333 0006 0000     		.short	0
 334 0008 0000     		.short	0
 335 000a 0000     		.space	2
 336              		.section	.rodata.SendUint8ToComputer.str1.4,"aMS",%progbits,1
 337              		.align	2
 338              	.LC0:
 339 0000 53544152 		.ascii	"START\000"
 339      5400
ARM GAS  C:\Users\clema\AppData\Local\Temp\ccZ8ibcy.s 			page 7


 340              		.section	.rodata.__stack_chk_fail.str1.4,"aMS",%progbits,1
 341              		.align	2
 342              	.LC1:
 343 0000 53746163 		.ascii	"Stack smashing detected\000"
 343      6B20736D 
 343      61736869 
 343      6E672064 
 343      65746563 
 344              		.section	.rodata.gpt12cfg.14958,"a",%progbits
 345              		.align	2
 346              		.set	.LANCHOR1,. + 0
 347              		.type	gpt12cfg.14958, %object
 348              		.size	gpt12cfg.14958, 16
 349              	gpt12cfg.14958:
 350 0000 40420F00 		.word	1000000
 351 0004 00000000 		.word	0
 352 0008 00000000 		.word	0
 353 000c 00000000 		.word	0
 354              		.text
 355              	.Letext0:
 356              		.file 2 "c:\\users\\clema\\desktop\\eclipse_e-puck2\\tools\\gcc-arm-none-eabi-7-2017-q4-major-win3
 357              		.file 3 "c:\\users\\clema\\desktop\\eclipse_e-puck2\\tools\\gcc-arm-none-eabi-7-2017-q4-major-win3
 358              		.file 4 "c:\\users\\clema\\desktop\\eclipse_e-puck2\\tools\\gcc-arm-none-eabi-7-2017-q4-major-win3
 359              		.file 5 "c:\\users\\clema\\desktop\\eclipse_e-puck2\\tools\\gcc-arm-none-eabi-7-2017-q4-major-win3
 360              		.file 6 "c:\\users\\clema\\desktop\\eclipse_e-puck2\\tools\\gcc-arm-none-eabi-7-2017-q4-major-win3
 361              		.file 7 "c:\\users\\clema\\desktop\\eclipse_e-puck2\\tools\\gcc-arm-none-eabi-7-2017-q4-major-win3
 362              		.file 8 "c:\\users\\clema\\desktop\\eclipse_e-puck2\\tools\\gcc-arm-none-eabi-7-2017-q4-major-win3
 363              		.file 9 "c:\\users\\clema\\desktop\\eclipse_e-puck2\\tools\\gcc-arm-none-eabi-7-2017-q4-major-win3
 364              		.file 10 "../../lib/e-puck2_main-processor/ChibiOS//os/rt/ports/ARMCMx/compilers/GCC/chtypes.h"
 365              		.file 11 "../../lib/e-puck2_main-processor/ChibiOS//os/rt/include/chsystypes.h"
 366              		.file 12 "../../lib/e-puck2_main-processor/ChibiOS//os/rt/include/chschd.h"
 367              		.file 13 "../../lib/e-puck2_main-processor/ChibiOS//os/ext/CMSIS/include/core_cm4.h"
 368              		.file 14 "../../lib/e-puck2_main-processor/ChibiOS//os/ext/CMSIS/ST/system_stm32f4xx.h"
 369              		.file 15 "../../lib/e-puck2_main-processor/ChibiOS//os/ext/CMSIS/ST/stm32f407xx.h"
 370              		.file 16 "../../lib/e-puck2_main-processor/ChibiOS//os/rt/ports/ARMCMx/chcore.h"
 371              		.file 17 "../../lib/e-puck2_main-processor/ChibiOS//os/rt/ports/ARMCMx/chcore_v7m.h"
 372              		.file 18 "../../lib/e-puck2_main-processor/ChibiOS//os/rt/include/chdebug.h"
 373              		.file 19 "../../lib/e-puck2_main-processor/ChibiOS//os/rt/include/chtm.h"
 374              		.file 20 "../../lib/e-puck2_main-processor/ChibiOS//os/rt/include/chstats.h"
 375              		.file 21 "../../lib/e-puck2_main-processor/ChibiOS//os/rt/include/chsem.h"
 376              		.file 22 "../../lib/e-puck2_main-processor/ChibiOS//os/rt/include/chmtx.h"
 377              		.file 23 "../../lib/e-puck2_main-processor/ChibiOS//os/rt/include/chregistry.h"
 378              		.file 24 "../../lib/e-puck2_main-processor/ChibiOS//os/rt/include/chcond.h"
 379              		.file 25 "../../lib/e-puck2_main-processor/ChibiOS//os/rt/include/chevents.h"
 380              		.file 26 "../../lib/e-puck2_main-processor/ChibiOS//os/rt/include/chqueues.h"
 381              		.file 27 "../../lib/e-puck2_main-processor/ChibiOS//os/rt/include/chstreams.h"
 382              		.file 28 "../../lib/e-puck2_main-processor/ChibiOS//os/hal/ports/STM32/STM32F4xx/stm32_dma.h"
 383              		.file 29 "../../lib/e-puck2_main-processor/ChibiOS//os/hal/include/hal_ioblock.h"
 384              		.file 30 "../../lib/e-puck2_main-processor/ChibiOS//os/hal/ports/STM32/LLD/GPIOv2/pal_lld.h"
 385              		.file 31 "../../lib/e-puck2_main-processor/ChibiOS//os/hal/include/adc.h"
 386              		.file 32 "../../lib/e-puck2_main-processor/ChibiOS//os/hal/ports/STM32/STM32F4xx/adc_lld.h"
 387              		.file 33 "../../lib/e-puck2_main-processor/ChibiOS//os/hal/include/can.h"
 388              		.file 34 "../../lib/e-puck2_main-processor/ChibiOS//os/hal/ports/STM32/LLD/can_lld.h"
 389              		.file 35 "../../lib/e-puck2_main-processor/ChibiOS//os/hal/include/dac.h"
 390              		.file 36 "../../lib/e-puck2_main-processor/ChibiOS//os/hal/ports/STM32/LLD/DACv1/dac_lld.h"
 391              		.file 37 "../../lib/e-puck2_main-processor/ChibiOS//os/hal/include/ext.h"
 392              		.file 38 "../../lib/e-puck2_main-processor/ChibiOS//os/hal/ports/STM32/LLD/ext_lld.h"
ARM GAS  C:\Users\clema\AppData\Local\Temp\ccZ8ibcy.s 			page 8


 393              		.file 39 "../../lib/e-puck2_main-processor/ChibiOS//os/hal/include/gpt.h"
 394              		.file 40 "../../lib/e-puck2_main-processor/ChibiOS//os/hal/ports/STM32/LLD/TIMv1/gpt_lld.h"
 395              		.file 41 "../../lib/e-puck2_main-processor/ChibiOS//os/hal/ports/STM32/LLD/TIMv1/stm32_tim.h"
 396              		.file 42 "../../lib/e-puck2_main-processor/ChibiOS//os/hal/include/i2c.h"
 397              		.file 43 "../../lib/e-puck2_main-processor/ChibiOS//os/hal/ports/STM32/LLD/I2Cv1/i2c_lld.h"
 398              		.file 44 "../../lib/e-puck2_main-processor/ChibiOS//os/hal/include/i2s.h"
 399              		.file 45 "../../lib/e-puck2_main-processor/ChibiOS//os/hal/ports/STM32/LLD/SPIv1/i2s_lld.h"
 400              		.file 46 "../../lib/e-puck2_main-processor/ChibiOS//os/hal/include/pwm.h"
 401              		.file 47 "../../lib/e-puck2_main-processor/ChibiOS//os/hal/ports/STM32/LLD/TIMv1/pwm_lld.h"
 402              		.file 48 "../../lib/e-puck2_main-processor/ChibiOS//os/hal/include/serial.h"
 403              		.file 49 "../../lib/e-puck2_main-processor/ChibiOS//os/hal/ports/STM32/LLD/USARTv1/serial_lld.h"
 404              		.file 50 "../../lib/e-puck2_main-processor/ChibiOS//os/hal/include/sdc.h"
 405              		.file 51 "../../lib/e-puck2_main-processor/ChibiOS//os/hal/ports/STM32/LLD/sdc_lld.h"
 406              		.file 52 "../../lib/e-puck2_main-processor/ChibiOS//os/hal/include/spi.h"
 407              		.file 53 "../../lib/e-puck2_main-processor/ChibiOS//os/hal/ports/STM32/LLD/SPIv1/spi_lld.h"
 408              		.file 54 "../../lib/e-puck2_main-processor/ChibiOS//os/hal/include/usb.h"
 409              		.file 55 "../../lib/e-puck2_main-processor/ChibiOS//os/hal/ports/STM32/LLD/OTGv1/usb_lld.h"
 410              		.file 56 "../../lib/e-puck2_main-processor/ChibiOS//os/hal/ports/STM32/LLD/OTGv1/stm32_otg.h"
 411              		.file 57 "../../lib/e-puck2_main-processor/ChibiOS//os/hal/include/serial_usb.h"
 412              		.file 58 "../../lib/e-puck2_main-processor/src/usbcfg.h"
 413              		.file 59 "../../lib/e-puck2_main-processor/ChibiOS_ext/os/hal/include/../ports/STM32/STM32F4xx/dcm
 414              		.file 60 "c:\\users\\clema\\desktop\\eclipse_e-puck2\\tools\\gcc-arm-none-eabi-7-2017-q4-major-win
 415              		.file 61 "../../lib/e-puck2_main-processor/src/msgbus/messagebus.h"
 416              		.file 62 "../../lib/e-puck2_main-processor/src/parameter/parameter.h"
 417              		.file 63 "./main.h"
 418              		.file 64 "../../lib/e-puck2_main-processor/src/leds.h"
 419              		.file 65 "./fft.h"
 420              		.file 66 "../../lib/e-puck2_main-processor/ChibiOS//os/rt/include/chsys.h"
 421              		.file 67 "../../lib/e-puck2_main-processor/ChibiOS//os/hal/include/hal.h"
 422              		.file 68 "../../lib/e-puck2_main-processor/src/memory_protection.h"
 423              		.file 69 "../../lib/e-puck2_main-processor/src/camera/dcmi_camera.h"
 424              		.file 70 "../../lib/e-puck2_main-processor/src/camera/po8030.h"
 425              		.file 71 "../../lib/e-puck2_main-processor/src/motors.h"
 426              		.file 72 "./process_image.h"
 427              		.file 73 "../../lib/e-puck2_main-processor/src/audio/microphone.h"
 428              		.file 74 "../../lib/e-puck2_main-processor/ChibiOS//os/rt/include/chthreads.h"