ARM GAS  /var/folders/v1/6n8xbysd26j0jhwt080xtrv80000gn/T//cclFysmc.s 			page 1


   1              		.cpu cortex-m4
   2              		.eabi_attribute 27, 1
   3              		.eabi_attribute 28, 1
   4              		.eabi_attribute 20, 1
   5              		.eabi_attribute 21, 1
   6              		.eabi_attribute 23, 3
   7              		.eabi_attribute 24, 1
   8              		.eabi_attribute 25, 1
   9              		.eabi_attribute 26, 1
  10              		.eabi_attribute 30, 2
  11              		.eabi_attribute 34, 1
  12              		.eabi_attribute 18, 4
  13              		.file	"pi_regulator.c"
  14              		.text
  15              	.Ltext0:
  16              		.cfi_sections	.debug_frame
  17              		.section	.text.chprintf.constprop.0,"ax",%progbits
  18              		.align	1
  19              		.p2align 4,,15
  20              		.syntax unified
  21              		.thumb
  22              		.thumb_func
  23              		.fpu fpv4-sp-d16
  24              		.type	chprintf.constprop.0, %function
  25              	chprintf.constprop.0:
  26              	.LFB260:
  27              		.file 1 "../../lib/e-puck2_main-processor/ChibiOS//os/hal/lib/streams/chprintf.h"
  28              		.loc 1 69 0
  29              		.cfi_startproc
  30              		@ args = 4, pretend = 12, frame = 8
  31              		@ frame_needed = 0, uses_anonymous_args = 1
  32              	.LVL0:
  33 0000 0EB4     		push	{r1, r2, r3}
  34              		.cfi_def_cfa_offset 12
  35              		.cfi_offset 1, -12
  36              		.cfi_offset 2, -8
  37              		.cfi_offset 3, -4
  38 0002 10B5     		push	{r4, lr}
  39              		.cfi_def_cfa_offset 20
  40              		.cfi_offset 4, -20
  41              		.cfi_offset 14, -16
  42 0004 83B0     		sub	sp, sp, #12
  43              		.cfi_def_cfa_offset 32
  44              		.loc 1 69 0
  45 0006 05AA     		add	r2, sp, #20
  46 0008 094C     		ldr	r4, .L6
  47 000a 52F8041B 		ldr	r1, [r2], #4
  48 000e 2368     		ldr	r3, [r4]
  49              		.loc 1 74 0
  50 0010 0848     		ldr	r0, .L6+4
  51              	.LVL1:
  52              		.loc 1 73 0
  53 0012 0092     		str	r2, [sp]
  54              		.loc 1 69 0
  55 0014 0193     		str	r3, [sp, #4]
  56              	.LVL2:
  57              		.loc 1 74 0
ARM GAS  /var/folders/v1/6n8xbysd26j0jhwt080xtrv80000gn/T//cclFysmc.s 			page 2


  58 0016 FFF7FEFF 		bl	chvprintf
  59              	.LVL3:
  60              		.loc 1 78 0
  61 001a 019A     		ldr	r2, [sp, #4]
  62 001c 2368     		ldr	r3, [r4]
  63 001e 9A42     		cmp	r2, r3
  64 0020 04D1     		bne	.L5
  65 0022 03B0     		add	sp, sp, #12
  66              		.cfi_remember_state
  67              		.cfi_def_cfa_offset 20
  68              		@ sp needed
  69 0024 BDE81040 		pop	{r4, lr}
  70              		.cfi_restore 14
  71              		.cfi_restore 4
  72              		.cfi_def_cfa_offset 12
  73 0028 03B0     		add	sp, sp, #12
  74              		.cfi_restore 3
  75              		.cfi_restore 2
  76              		.cfi_restore 1
  77              		.cfi_def_cfa_offset 0
  78 002a 7047     		bx	lr
  79              	.L5:
  80              		.cfi_restore_state
  81 002c FFF7FEFF 		bl	__stack_chk_fail
  82              	.LVL4:
  83              	.L7:
  84              		.align	2
  85              	.L6:
  86 0030 00000000 		.word	__stack_chk_guard
  87 0034 00000000 		.word	SD3
  88              		.cfi_endproc
  89              	.LFE260:
  90              		.size	chprintf.constprop.0, .-chprintf.constprop.0
  91              		.section	.text.PiRegulator,"ax",%progbits
  92              		.align	1
  93              		.p2align 4,,15
  94              		.syntax unified
  95              		.thumb
  96              		.thumb_func
  97              		.fpu fpv4-sp-d16
  98              		.type	PiRegulator, %function
  99              	PiRegulator:
 100              	.LFB258:
 101              		.file 2 "pi_regulator.c"
 102              		.loc 2 46 0
 103              		.cfi_startproc
 104              		@ args = 0, pretend = 0, frame = 8
 105              		@ frame_needed = 0, uses_anonymous_args = 0
 106              	.LVL5:
 107 0000 2DE9F04F 		push	{r4, r5, r6, r7, r8, r9, r10, fp, lr}
 108              		.cfi_def_cfa_offset 36
 109              		.cfi_offset 4, -36
 110              		.cfi_offset 5, -32
 111              		.cfi_offset 6, -28
 112              		.cfi_offset 7, -24
 113              		.cfi_offset 8, -20
 114              		.cfi_offset 9, -16
ARM GAS  /var/folders/v1/6n8xbysd26j0jhwt080xtrv80000gn/T//cclFysmc.s 			page 3


 115              		.cfi_offset 10, -12
 116              		.cfi_offset 11, -8
 117              		.cfi_offset 14, -4
 118              	.LBB48:
 119              	.LBB49:
 120              		.file 3 "../../lib/e-puck2_main-processor/ChibiOS//os/rt/include/chregistry.h"
 121              		.loc 3 135 0
 122 0004 2D4D     		ldr	r5, .L20
 123              	.LBE49:
 124              	.LBE48:
 125              		.loc 2 46 0
 126 0006 2E4B     		ldr	r3, .L20+4
 127              	.LBB52:
 128              	.LBB50:
 129              		.loc 3 135 0
 130 0008 AA69     		ldr	r2, [r5, #24]
 131 000a 2E49     		ldr	r1, .L20+8
 132              	.LBE50:
 133              	.LBE52:
 134              		.loc 2 46 0
 135 000c 1B68     		ldr	r3, [r3]
 136              	.LBB53:
 137              	.LBB54:
 138              	.LBB55:
 139              	.LBB56:
 140              		.file 4 "../../lib/e-puck2_main-processor/ChibiOS//os/rt/include/chsys.h"
 141              		.loc 4 367 0
 142 000e DFF8BCB0 		ldr	fp, .L20+16
 143              	.LBE56:
 144              	.LBE55:
 145              	.LBE54:
 146              	.LBE53:
 147              		.loc 2 61 0
 148 0012 DFF8BCA0 		ldr	r10, .L20+20
 149 0016 DFF8BC90 		ldr	r9, .L20+24
 150              	.LBB73:
 151              	.LBB51:
 152              		.loc 3 135 0
 153 001a 9161     		str	r1, [r2, #24]
 154              	.LBE51:
 155              	.LBE73:
 156              		.loc 2 46 0
 157 001c 83B0     		sub	sp, sp, #12
 158              		.cfi_def_cfa_offset 48
 159              		.loc 2 54 0
 160 001e 4FF00008 		mov	r8, #0
 161              		.loc 2 46 0
 162 0022 0193     		str	r3, [sp, #4]
 163              	.LVL6:
 164              		.loc 2 53 0
 165 0024 4746     		mov	r7, r8
 166 0026 12E0     		b	.L13
 167              	.LVL7:
 168              	.L10:
 169              		.loc 2 67 0
 170 0028 FFF7FEFF 		bl	obstacle_detected
 171              	.LVL8:
ARM GAS  /var/folders/v1/6n8xbysd26j0jhwt080xtrv80000gn/T//cclFysmc.s 			page 4


 172 002c 4FEA4804 		lsl	r4, r8, #1
 173 0030 0346     		mov	r3, r0
 174 0032 0028     		cmp	r0, #0
 175 0034 38D0     		beq	.L11
 176              	.L19:
 177 0036 381B     		subs	r0, r7, r4
 178 0038 3C44     		add	r4, r4, r7
 179              	.LVL9:
 180              	.L12:
 181              		.loc 2 87 0
 182 003a FFF7FEFF 		bl	right_motor_set_speed
 183              	.LVL10:
 184              		.loc 2 88 0
 185 003e 2046     		mov	r0, r4
 186 0040 FFF7FEFF 		bl	left_motor_set_speed
 187              	.LVL11:
 188              		.loc 2 91 0
 189 0044 06F10A01 		add	r1, r6, #10
 190 0048 3046     		mov	r0, r6
 191 004a FFF7FEFF 		bl	chThdSleepUntilWindowed
 192              	.LVL12:
 193              	.L13:
 194              	.LBB74:
 195              	.LBB72:
 196              	.LBB64:
 197              	.LBB65:
 198              	.LBB66:
 199              	.LBB67:
 200              	.LBB68:
 201              		.file 5 "../../lib/e-puck2_main-processor/ChibiOS//os/ext/CMSIS/include/core_cmFunc.h"
 202              		.loc 5 546 0
 203 004e 2023     		movs	r3, #32
 204              		.syntax unified
 205              	@ 546 "../../lib/e-puck2_main-processor/ChibiOS//os/ext/CMSIS/include/core_cmFunc.h" 1
 206 0050 83F31188 		MSR basepri, r3
 207              	@ 0 "" 2
 208              	.LVL13:
 209              		.thumb
 210              		.syntax unified
 211              	.LBE68:
 212              	.LBE67:
 213              	.LBE66:
 214              		.loc 4 349 0
 215 0054 FFF7FEFF 		bl	_stats_start_measure_crit_thd
 216              	.LVL14:
 217              		.loc 4 350 0
 218 0058 FFF7FEFF 		bl	_dbg_check_lock
 219              	.LVL15:
 220              	.LBE65:
 221              	.LBE64:
 222              	.LBB69:
 223              	.LBB70:
 224              		.file 6 "../../lib/e-puck2_main-processor/ChibiOS//os/rt/include/chvt.h"
 225              		.loc 6 231 0
 226 005c AE6A     		ldr	r6, [r5, #40]
 227              	.LBE70:
 228              	.LBE69:
ARM GAS  /var/folders/v1/6n8xbysd26j0jhwt080xtrv80000gn/T//cclFysmc.s 			page 5


 229              	.LBB71:
 230              	.LBB63:
 231              		.loc 4 360 0
 232 005e FFF7FEFF 		bl	_dbg_check_unlock
 233              	.LVL16:
 234              		.loc 4 361 0
 235 0062 FFF7FEFF 		bl	_stats_stop_measure_crit_thd
 236              	.LVL17:
 237              		.loc 4 367 0
 238 0066 2B68     		ldr	r3, [r5]
 239 0068 AB42     		cmp	r3, r5
 240              	.LBB57:
 241              	.LBB58:
 242              	.LBB59:
 243              		.loc 5 546 0
 244 006a 4FF00004 		mov	r4, #0
 245              	.LBE59:
 246              	.LBE58:
 247              	.LBE57:
 248              		.loc 4 367 0
 249 006e 07D0     		beq	.L9
 250 0070 AA69     		ldr	r2, [r5, #24]
 251 0072 9B68     		ldr	r3, [r3, #8]
 252 0074 9268     		ldr	r2, [r2, #8]
 253 0076 9A42     		cmp	r2, r3
 254 0078 02D2     		bcs	.L9
 255 007a 5846     		mov	r0, fp
 256 007c FFF7FEFF 		bl	chSysHalt
 257              	.LVL18:
 258              	.L9:
 259              	.LBB62:
 260              	.LBB61:
 261              	.LBB60:
 262              		.loc 5 546 0
 263              		.syntax unified
 264              	@ 546 "../../lib/e-puck2_main-processor/ChibiOS//os/ext/CMSIS/include/core_cmFunc.h" 1
 265 0080 84F31188 		MSR basepri, r4
 266              	@ 0 "" 2
 267              	.LVL19:
 268              		.thumb
 269              		.syntax unified
 270              	.LBE60:
 271              	.LBE61:
 272              	.LBE62:
 273              	.LBE63:
 274              	.LBE71:
 275              	.LBE72:
 276              	.LBE74:
 277              		.loc 2 59 0
 278 0084 FFF7FEFF 		bl	obstacle_detected
 279              	.LVL20:
 280 0088 0028     		cmp	r0, #0
 281 008a CDD0     		beq	.L10
 282              		.loc 2 61 0
 283 008c 5146     		mov	r1, r10
 284 008e 4846     		mov	r0, r9
 285 0090 FFF7FEFF 		bl	chprintf.constprop.0
ARM GAS  /var/folders/v1/6n8xbysd26j0jhwt080xtrv80000gn/T//cclFysmc.s 			page 6


 286              	.LVL21:
 287              		.loc 2 67 0
 288 0094 FFF7FEFF 		bl	obstacle_detected
 289              	.LVL22:
 290              		.loc 2 63 0
 291 0098 4FF4FA78 		mov	r8, #500
 292              	.LVL23:
 293              		.loc 2 62 0
 294 009c 2746     		mov	r7, r4
 295              	.LVL24:
 296              		.loc 2 67 0
 297 009e 0346     		mov	r3, r0
 298 00a0 4FEA4804 		lsl	r4, r8, #1
 299 00a4 0028     		cmp	r0, #0
 300 00a6 C6D1     		bne	.L19
 301              	.L11:
 302              	.LVL25:
 303              		.loc 2 71 0
 304 00a8 4FF46174 		mov	r4, #900
 305 00ac 0649     		ldr	r1, .L20+12
 306 00ae 4846     		mov	r0, r9
 307              		.loc 2 70 0
 308 00b0 9846     		mov	r8, r3
 309              		.loc 2 69 0
 310 00b2 2746     		mov	r7, r4
 311              		.loc 2 71 0
 312 00b4 FFF7FEFF 		bl	chprintf.constprop.0
 313              	.LVL26:
 314 00b8 2046     		mov	r0, r4
 315 00ba BEE7     		b	.L12
 316              	.L21:
 317              		.align	2
 318              	.L20:
 319 00bc 00000000 		.word	ch
 320 00c0 00000000 		.word	__stack_chk_guard
 321 00c4 00000000 		.word	.LANCHOR0
 322 00c8 08000000 		.word	.LC1
 323 00cc 00000000 		.word	.LANCHOR1
 324 00d0 00000000 		.word	.LC0
 325 00d4 00000000 		.word	SD3
 326              		.cfi_endproc
 327              	.LFE258:
 328              		.size	PiRegulator, .-PiRegulator
 329              		.section	.text.pi_regulator,"ax",%progbits
 330              		.align	1
 331              		.p2align 4,,15
 332              		.global	pi_regulator
 333              		.syntax unified
 334              		.thumb
 335              		.thumb_func
 336              		.fpu fpv4-sp-d16
 337              		.type	pi_regulator, %function
 338              	pi_regulator:
 339              	.LFB257:
 340              		.loc 2 15 0
 341              		.cfi_startproc
 342              		@ args = 0, pretend = 0, frame = 8
ARM GAS  /var/folders/v1/6n8xbysd26j0jhwt080xtrv80000gn/T//cclFysmc.s 			page 7


 343              		@ frame_needed = 0, uses_anonymous_args = 0
 344              	.LVL27:
 345 0000 00B5     		push	{lr}
 346              		.cfi_def_cfa_offset 4
 347              		.cfi_offset 14, -4
 348              		.loc 2 22 0
 349 0002 70EE600A 		vsub.f32	s1, s0, s1
 350              	.LVL28:
 351              		.loc 2 27 0
 352 0006 DFED227A 		vldr.32	s15, .L35
 353              		.loc 2 15 0
 354 000a 224B     		ldr	r3, .L35+4
 355              		.loc 2 27 0
 356 000c B0EEE07A 		vabs.f32	s14, s1
 357              		.loc 2 15 0
 358 0010 83B0     		sub	sp, sp, #12
 359              		.cfi_def_cfa_offset 16
 360              		.loc 2 27 0
 361 0012 B4EEE77A 		vcmpe.f32	s14, s15
 362              		.loc 2 15 0
 363 0016 1A68     		ldr	r2, [r3]
 364 0018 0192     		str	r2, [sp, #4]
 365              	.LVL29:
 366              		.loc 2 27 0
 367 001a F1EE10FA 		vmrs	APSR_nzcv, FPSCR
 368 001e 2BD4     		bmi	.L29
 369              		.loc 2 31 0
 370 0020 1D4A     		ldr	r2, .L35+8
 371              		.loc 2 34 0
 372 0022 9FED1E7A 		vldr.32	s14, .L35+12
 373              		.loc 2 31 0
 374 0026 D2ED007A 		vldr.32	s15, [r2]
 375 002a 70EEA77A 		vadd.f32	s15, s1, s15
 376              		.loc 2 34 0
 377 002e F4EEC77A 		vcmpe.f32	s15, s14
 378 0032 F1EE10FA 		vmrs	APSR_nzcv, FPSCR
 379 0036 13DD     		ble	.L31
 380 0038 DFED197A 		vldr.32	s15, .L35+16
 381              		.loc 2 35 0
 382 003c 82ED007A 		vstr.32	s14, [r2]
 383              	.L26:
 384              	.LVL30:
 385              		.loc 2 40 0
 386 0040 9FED187A 		vldr.32	s14, .L35+20
 387 0044 E0EE877A 		vfma.f32	s15, s1, s14
 388              	.LVL31:
 389              		.loc 2 42 0
 390 0048 FDEEE77A 		vcvt.s32.f32	s15, s15
 391              	.LVL32:
 392 004c 17EE902A 		vmov	r2, s15	@ int
 393 0050 10B2     		sxth	r0, r2
 394              	.L23:
 395              		.loc 2 43 0
 396 0052 019A     		ldr	r2, [sp, #4]
 397 0054 1B68     		ldr	r3, [r3]
 398 0056 9A42     		cmp	r2, r3
 399 0058 17D1     		bne	.L33
ARM GAS  /var/folders/v1/6n8xbysd26j0jhwt080xtrv80000gn/T//cclFysmc.s 			page 8


 400 005a 03B0     		add	sp, sp, #12
 401              		.cfi_remember_state
 402              		.cfi_def_cfa_offset 4
 403              		@ sp needed
 404 005c 5DF804FB 		ldr	pc, [sp], #4
 405              	.LVL33:
 406              	.L31:
 407              		.cfi_restore_state
 408              		.loc 2 36 0
 409 0060 9FED117A 		vldr.32	s14, .L35+24
 410 0064 F4EEC77A 		vcmpe.f32	s15, s14
 411 0068 F1EE10FA 		vmrs	APSR_nzcv, FPSCR
 412 006c 06D5     		bpl	.L34
 413              		.loc 2 37 0
 414 006e DFED0F7A 		vldr.32	s15, .L35+28
 415 0072 82ED007A 		vstr.32	s14, [r2]
 416 0076 E3E7     		b	.L26
 417              	.L29:
 418              		.loc 2 28 0
 419 0078 0020     		movs	r0, #0
 420 007a EAE7     		b	.L23
 421              	.L34:
 422 007c B0EE0C7A 		vmov.f32	s14, #3.5e+0
 423              		.loc 2 31 0
 424 0080 C2ED007A 		vstr.32	s15, [r2]
 425 0084 67EE877A 		vmul.f32	s15, s15, s14
 426 0088 DAE7     		b	.L26
 427              	.LVL34:
 428              	.L33:
 429              		.loc 2 43 0
 430 008a FFF7FEFF 		bl	__stack_chk_fail
 431              	.LVL35:
 432              	.L36:
 433 008e 00BF     		.align	2
 434              	.L35:
 435 0090 CDCCCC3D 		.word	1036831949
 436 0094 00000000 		.word	__stack_chk_guard
 437 0098 00000000 		.word	.LANCHOR2
 438 009c 92249D43 		.word	1134371986
 439 00a0 00808944 		.word	1149861888
 440 00a4 00004844 		.word	1145569280
 441 00a8 92249DC3 		.word	3281855634
 442 00ac 008089C4 		.word	3297345536
 443              		.cfi_endproc
 444              	.LFE257:
 445              		.size	pi_regulator, .-pi_regulator
 446              		.section	.text.pi_regulator_start,"ax",%progbits
 447              		.align	1
 448              		.p2align 4,,15
 449              		.global	pi_regulator_start
 450              		.syntax unified
 451              		.thumb
 452              		.thumb_func
 453              		.fpu fpv4-sp-d16
 454              		.type	pi_regulator_start, %function
 455              	pi_regulator_start:
 456              	.LFB259:
ARM GAS  /var/folders/v1/6n8xbysd26j0jhwt080xtrv80000gn/T//cclFysmc.s 			page 9


 457              		.loc 2 95 0
 458              		.cfi_startproc
 459              		@ args = 0, pretend = 0, frame = 8
 460              		@ frame_needed = 0, uses_anonymous_args = 0
 461 0000 10B5     		push	{r4, lr}
 462              		.cfi_def_cfa_offset 8
 463              		.cfi_offset 4, -8
 464              		.cfi_offset 14, -4
 465 0002 0A4C     		ldr	r4, .L41
 466              		.loc 2 96 0
 467 0004 0A4B     		ldr	r3, .L41+4
 468              		.loc 2 95 0
 469 0006 2268     		ldr	r2, [r4]
 470              		.loc 2 96 0
 471 0008 0A48     		ldr	r0, .L41+8
 472              		.loc 2 95 0
 473 000a 84B0     		sub	sp, sp, #16
 474              		.cfi_def_cfa_offset 24
 475              		.loc 2 96 0
 476 000c 4FF41E71 		mov	r1, #632
 477              		.loc 2 95 0
 478 0010 0392     		str	r2, [sp, #12]
 479              		.loc 2 96 0
 480 0012 0022     		movs	r2, #0
 481 0014 0092     		str	r2, [sp]
 482 0016 4022     		movs	r2, #64
 483 0018 FFF7FEFF 		bl	chThdCreateStatic
 484              	.LVL36:
 485              		.loc 2 97 0
 486 001c 039A     		ldr	r2, [sp, #12]
 487 001e 2368     		ldr	r3, [r4]
 488 0020 9A42     		cmp	r2, r3
 489 0022 01D1     		bne	.L40
 490 0024 04B0     		add	sp, sp, #16
 491              		.cfi_remember_state
 492              		.cfi_def_cfa_offset 8
 493              		@ sp needed
 494 0026 10BD     		pop	{r4, pc}
 495              	.L40:
 496              		.cfi_restore_state
 497 0028 FFF7FEFF 		bl	__stack_chk_fail
 498              	.LVL37:
 499              	.L42:
 500              		.align	2
 501              	.L41:
 502 002c 00000000 		.word	__stack_chk_guard
 503 0030 00000000 		.word	PiRegulator
 504 0034 00000000 		.word	.LANCHOR3
 505              		.cfi_endproc
 506              	.LFE259:
 507              		.size	pi_regulator_start, .-pi_regulator_start
 508              		.section	.bss.sum_error.11872,"aw",%nobits
 509              		.align	2
 510              		.set	.LANCHOR2,. + 0
 511              		.type	sum_error.11872, %object
 512              		.size	sum_error.11872, 4
 513              	sum_error.11872:
ARM GAS  /var/folders/v1/6n8xbysd26j0jhwt080xtrv80000gn/T//cclFysmc.s 			page 10


 514 0000 00000000 		.space	4
 515              		.section	.bss.waPiRegulator,"aw",%nobits
 516              		.align	3
 517              		.set	.LANCHOR3,. + 0
 518              		.type	waPiRegulator, %object
 519              		.size	waPiRegulator, 632
 520              	waPiRegulator:
 521 0000 00000000 		.space	632
 521      00000000 
 521      00000000 
 521      00000000 
 521      00000000 
 522              		.section	.rodata.PiRegulator.str1.4,"aMS",%progbits,1
 523              		.align	2
 524              	.LC0:
 525 0000 66726F6E 		.ascii	"front\000"
 525      7400
 526 0006 0000     		.space	2
 527              	.LC1:
 528 0008 6E6F7468 		.ascii	"nothing_detected\000"
 528      696E675F 
 528      64657465 
 528      63746564 
 528      00
 529              		.section	.rodata.__FUNCTION__.11877,"a",%progbits
 530              		.align	2
 531              		.set	.LANCHOR0,. + 0
 532              		.type	__FUNCTION__.11877, %object
 533              		.size	__FUNCTION__.11877, 12
 534              	__FUNCTION__.11877:
 535 0000 50695265 		.ascii	"PiRegulator\000"
 535      67756C61 
 535      746F7200 
 536              		.section	.rodata.__func__.7153,"a",%progbits
 537              		.align	2
 538              		.set	.LANCHOR1,. + 0
 539              		.type	__func__.7153, %object
 540              		.size	__func__.7153, 12
 541              	__func__.7153:
 542 0000 63685379 		.ascii	"chSysUnlock\000"
 542      73556E6C 
 542      6F636B00 
 543              		.text
 544              	.Letext0:
 545              		.file 7 "/Applications/Eclipse_e-puck2.app/Contents/Eclipse_e-puck2/Tools/gcc-arm-none-eabi-7-2017
 546              		.file 8 "/Applications/Eclipse_e-puck2.app/Contents/Eclipse_e-puck2/Tools/gcc-arm-none-eabi-7-2017
 547              		.file 9 "/Applications/Eclipse_e-puck2.app/Contents/Eclipse_e-puck2/Tools/gcc-arm-none-eabi-7-2017
 548              		.file 10 "../../lib/e-puck2_main-processor/ChibiOS//os/rt/ports/ARMCMx/compilers/GCC/chtypes.h"
 549              		.file 11 "../../lib/e-puck2_main-processor/ChibiOS//os/rt/include/chsystypes.h"
 550              		.file 12 "../../lib/e-puck2_main-processor/ChibiOS//os/rt/include/chschd.h"
 551              		.file 13 "../../lib/e-puck2_main-processor/ChibiOS//os/ext/CMSIS/include/core_cm4.h"
 552              		.file 14 "../../lib/e-puck2_main-processor/ChibiOS//os/ext/CMSIS/ST/system_stm32f4xx.h"
 553              		.file 15 "../../lib/e-puck2_main-processor/ChibiOS//os/ext/CMSIS/ST/stm32f407xx.h"
 554              		.file 16 "../../lib/e-puck2_main-processor/ChibiOS//os/rt/ports/ARMCMx/chcore.h"
 555              		.file 17 "../../lib/e-puck2_main-processor/ChibiOS//os/rt/ports/ARMCMx/chcore_v7m.h"
 556              		.file 18 "../../lib/e-puck2_main-processor/ChibiOS//os/rt/include/chdebug.h"
 557              		.file 19 "../../lib/e-puck2_main-processor/ChibiOS//os/rt/include/chtm.h"
ARM GAS  /var/folders/v1/6n8xbysd26j0jhwt080xtrv80000gn/T//cclFysmc.s 			page 11


 558              		.file 20 "../../lib/e-puck2_main-processor/ChibiOS//os/rt/include/chstats.h"
 559              		.file 21 "../../lib/e-puck2_main-processor/ChibiOS//os/rt/include/chsem.h"
 560              		.file 22 "../../lib/e-puck2_main-processor/ChibiOS//os/rt/include/chmtx.h"
 561              		.file 23 "../../lib/e-puck2_main-processor/ChibiOS//os/rt/include/chevents.h"
 562              		.file 24 "../../lib/e-puck2_main-processor/ChibiOS//os/rt/include/chqueues.h"
 563              		.file 25 "../../lib/e-puck2_main-processor/ChibiOS//os/rt/include/chstreams.h"
 564              		.file 26 "../../lib/e-puck2_main-processor/ChibiOS//os/hal/ports/STM32/STM32F4xx/stm32_dma.h"
 565              		.file 27 "../../lib/e-puck2_main-processor/ChibiOS//os/hal/include/hal_ioblock.h"
 566              		.file 28 "../../lib/e-puck2_main-processor/ChibiOS//os/hal/ports/STM32/LLD/GPIOv2/pal_lld.h"
 567              		.file 29 "../../lib/e-puck2_main-processor/ChibiOS//os/hal/include/adc.h"
 568              		.file 30 "../../lib/e-puck2_main-processor/ChibiOS//os/hal/ports/STM32/STM32F4xx/adc_lld.h"
 569              		.file 31 "../../lib/e-puck2_main-processor/ChibiOS//os/hal/include/can.h"
 570              		.file 32 "../../lib/e-puck2_main-processor/ChibiOS//os/hal/ports/STM32/LLD/can_lld.h"
 571              		.file 33 "../../lib/e-puck2_main-processor/ChibiOS//os/hal/include/dac.h"
 572              		.file 34 "../../lib/e-puck2_main-processor/ChibiOS//os/hal/ports/STM32/LLD/DACv1/dac_lld.h"
 573              		.file 35 "../../lib/e-puck2_main-processor/ChibiOS//os/hal/include/ext.h"
 574              		.file 36 "../../lib/e-puck2_main-processor/ChibiOS//os/hal/ports/STM32/LLD/ext_lld.h"
 575              		.file 37 "../../lib/e-puck2_main-processor/ChibiOS//os/hal/include/gpt.h"
 576              		.file 38 "../../lib/e-puck2_main-processor/ChibiOS//os/hal/ports/STM32/LLD/TIMv1/gpt_lld.h"
 577              		.file 39 "../../lib/e-puck2_main-processor/ChibiOS//os/hal/ports/STM32/LLD/TIMv1/stm32_tim.h"
 578              		.file 40 "../../lib/e-puck2_main-processor/ChibiOS//os/hal/include/i2c.h"
 579              		.file 41 "../../lib/e-puck2_main-processor/ChibiOS//os/hal/ports/STM32/LLD/I2Cv1/i2c_lld.h"
 580              		.file 42 "../../lib/e-puck2_main-processor/ChibiOS//os/hal/include/i2s.h"
 581              		.file 43 "../../lib/e-puck2_main-processor/ChibiOS//os/hal/ports/STM32/LLD/SPIv1/i2s_lld.h"
 582              		.file 44 "../../lib/e-puck2_main-processor/ChibiOS//os/hal/include/pwm.h"
 583              		.file 45 "../../lib/e-puck2_main-processor/ChibiOS//os/hal/ports/STM32/LLD/TIMv1/pwm_lld.h"
 584              		.file 46 "../../lib/e-puck2_main-processor/ChibiOS//os/hal/include/serial.h"
 585              		.file 47 "../../lib/e-puck2_main-processor/ChibiOS//os/hal/ports/STM32/LLD/USARTv1/serial_lld.h"
 586              		.file 48 "../../lib/e-puck2_main-processor/ChibiOS//os/hal/include/sdc.h"
 587              		.file 49 "../../lib/e-puck2_main-processor/ChibiOS//os/hal/ports/STM32/LLD/sdc_lld.h"
 588              		.file 50 "../../lib/e-puck2_main-processor/ChibiOS//os/hal/include/spi.h"
 589              		.file 51 "../../lib/e-puck2_main-processor/ChibiOS//os/hal/ports/STM32/LLD/SPIv1/spi_lld.h"
 590              		.file 52 "../../lib/e-puck2_main-processor/ChibiOS//os/hal/include/usb.h"
 591              		.file 53 "../../lib/e-puck2_main-processor/ChibiOS//os/hal/ports/STM32/LLD/OTGv1/usb_lld.h"
 592              		.file 54 "../../lib/e-puck2_main-processor/ChibiOS//os/hal/ports/STM32/LLD/OTGv1/stm32_otg.h"
 593              		.file 55 "../../lib/e-puck2_main-processor/ChibiOS//os/hal/include/serial_usb.h"
 594              		.file 56 "/Applications/Eclipse_e-puck2.app/Contents/Eclipse_e-puck2/Tools/gcc-arm-none-eabi-7-201
 595              		.file 57 "/Applications/Eclipse_e-puck2.app/Contents/Eclipse_e-puck2/Tools/gcc-arm-none-eabi-7-201
 596              		.file 58 "/Applications/Eclipse_e-puck2.app/Contents/Eclipse_e-puck2/Tools/gcc-arm-none-eabi-7-201
 597              		.file 59 "/Applications/Eclipse_e-puck2.app/Contents/Eclipse_e-puck2/Tools/gcc-arm-none-eabi-7-201
 598              		.file 60 "../../lib/e-puck2_main-processor/src/usbcfg.h"
 599              		.file 61 "/Applications/Eclipse_e-puck2.app/Contents/Eclipse_e-puck2/Tools/gcc-arm-none-eabi-7-201
 600              		.file 62 "<built-in>"
 601              		.file 63 "../../lib/e-puck2_main-processor/ChibiOS_ext/os/hal/include/../ports/STM32/STM32F4xx/dcm
 602              		.file 64 "/Applications/Eclipse_e-puck2.app/Contents/Eclipse_e-puck2/Tools/gcc-arm-none-eabi-7-201
 603              		.file 65 "../../lib/e-puck2_main-processor/src/msgbus/messagebus.h"
 604              		.file 66 "/Applications/Eclipse_e-puck2.app/Contents/Eclipse_e-puck2/Tools/gcc-arm-none-eabi-7-201
 605              		.file 67 "../../lib/e-puck2_main-processor/src/parameter/parameter.h"
 606              		.file 68 "./main.h"
 607              		.file 69 "../../lib/e-puck2_main-processor/ChibiOS//os/rt/include/chthreads.h"
 608              		.file 70 "./obstacle.h"
 609              		.file 71 "../../lib/e-puck2_main-processor/src/motors.h"