ARM GAS  C:\Users\clema\AppData\Local\Temp\ccXFdU3O.s 			page 1


   1              		.cpu cortex-m4
   2              		.eabi_attribute 27, 1
   3              		.eabi_attribute 28, 1
   4              		.eabi_attribute 20, 1
   5              		.eabi_attribute 21, 1
   6              		.eabi_attribute 23, 3
   7              		.eabi_attribute 24, 1
   8              		.eabi_attribute 25, 1
   9              		.eabi_attribute 26, 1
  10              		.eabi_attribute 30, 2
  11              		.eabi_attribute 34, 1
  12              		.eabi_attribute 18, 4
  13              		.file	"process_image.c"
  14              		.text
  15              	.Ltext0:
  16              		.cfi_sections	.debug_frame
  17              		.section	.text.CaptureImage,"ax",%progbits
  18              		.align	1
  19              		.p2align 4,,15
  20              		.syntax unified
  21              		.thumb
  22              		.thumb_func
  23              		.fpu fpv4-sp-d16
  24              		.type	CaptureImage, %function
  25              	CaptureImage:
  26              	.LFB258:
  27              		.file 1 "process_image.c"
  28              		.loc 1 104 0
  29              		.cfi_startproc
  30              		@ Volatile: function does not return.
  31              		@ args = 0, pretend = 0, frame = 8
  32              		@ frame_needed = 0, uses_anonymous_args = 0
  33              	.LVL0:
  34 0000 80B5     		push	{r7, lr}
  35              		.cfi_def_cfa_offset 8
  36              		.cfi_offset 7, -8
  37              		.cfi_offset 14, -4
  38              	.LBB53:
  39              	.LBB54:
  40              		.file 2 "../../lib/e-puck2_main-processor/ChibiOS//os/rt/include/chregistry.h"
  41              		.loc 2 135 0
  42 0002 234C     		ldr	r4, .L8
  43              	.LBE54:
  44              	.LBE53:
  45              		.loc 1 104 0
  46 0004 234A     		ldr	r2, .L8+4
  47              	.LBB57:
  48              	.LBB55:
  49              		.loc 2 135 0
  50 0006 A369     		ldr	r3, [r4, #24]
  51 0008 2349     		ldr	r1, .L8+8
  52              	.LBE55:
  53              	.LBE57:
  54              		.loc 1 104 0
  55 000a 1668     		ldr	r6, [r2]
  56              	.LBB58:
  57              	.LBB56:
ARM GAS  C:\Users\clema\AppData\Local\Temp\ccXFdU3O.s 			page 2


  58              		.loc 2 135 0
  59 000c 9961     		str	r1, [r3, #24]
  60              	.LBE56:
  61              	.LBE58:
  62              		.loc 1 104 0
  63 000e 86B0     		sub	sp, sp, #24
  64              		.cfi_def_cfa_offset 32
  65              		.loc 1 110 0
  66 0010 0223     		movs	r3, #2
  67 0012 2025     		movs	r5, #32
  68 0014 0A22     		movs	r2, #10
  69 0016 0021     		movs	r1, #0
  70 0018 0093     		str	r3, [sp]
  71              		.loc 1 104 0
  72 001a 0596     		str	r6, [sp, #20]
  73              		.loc 1 110 0
  74 001c 4FF42073 		mov	r3, #640
  75 0020 CDE90155 		strd	r5, r5, [sp, #4]
  76 0024 3020     		movs	r0, #48
  77              	.LVL1:
  78 0026 1D4E     		ldr	r6, .L8+12
  79              	.LBB59:
  80              	.LBB60:
  81              	.LBB61:
  82              	.LBB62:
  83              		.file 3 "../../lib/e-puck2_main-processor/ChibiOS//os/rt/include/chsys.h"
  84              		.loc 3 367 0
  85 0028 1D4F     		ldr	r7, .L8+16
  86              	.LBE62:
  87              	.LBE61:
  88              	.LBE60:
  89              	.LBE59:
  90              		.loc 1 110 0
  91 002a FFF7FEFF 		bl	po8030_advanced_config
  92              	.LVL2:
  93              		.loc 1 111 0
  94 002e FFF7FEFF 		bl	dcmi_enable_double_buffering
  95              	.LVL3:
  96              		.loc 1 112 0
  97 0032 0020     		movs	r0, #0
  98 0034 FFF7FEFF 		bl	dcmi_set_capture_mode
  99              	.LVL4:
 100              	.LBB80:
 101              	.LBB77:
 102              	.LBB67:
 103              	.LBB68:
 104              		.file 4 "../../lib/e-puck2_main-processor/ChibiOS//os/rt/include/chbsem.h"
 105              		.loc 4 271 0
 106 0038 B046     		mov	r8, r6
 107              	.LBE68:
 108              	.LBE67:
 109              	.LBE77:
 110              	.LBE80:
 111              		.loc 1 113 0
 112 003a FFF7FEFF 		bl	dcmi_prepare
 113              	.LVL5:
 114 003e 13E0     		b	.L4
ARM GAS  C:\Users\clema\AppData\Local\Temp\ccXFdU3O.s 			page 3


 115              	.LVL6:
 116              	.L2:
 117              	.LBB81:
 118              	.LBB78:
 119              		.loc 4 286 0
 120 0040 FFF7FEFF 		bl	chSchRescheduleS
 121              	.LVL7:
 122              	.LBB70:
 123              	.LBB66:
 124              		.loc 3 360 0
 125 0044 FFF7FEFF 		bl	_dbg_check_unlock
 126              	.LVL8:
 127              		.loc 3 361 0
 128 0048 FFF7FEFF 		bl	_stats_stop_measure_crit_thd
 129              	.LVL9:
 130              		.loc 3 367 0
 131 004c 2368     		ldr	r3, [r4]
 132 004e A342     		cmp	r3, r4
 133 0050 07D0     		beq	.L3
 134 0052 A269     		ldr	r2, [r4, #24]
 135 0054 9B68     		ldr	r3, [r3, #8]
 136 0056 9268     		ldr	r2, [r2, #8]
 137 0058 9A42     		cmp	r2, r3
 138 005a 02D2     		bcs	.L3
 139 005c 3846     		mov	r0, r7
 140 005e FFF7FEFF 		bl	chSysHalt
 141              	.LVL10:
 142              	.L3:
 143              	.LBB63:
 144              	.LBB64:
 145              	.LBB65:
 146              		.file 5 "../../lib/e-puck2_main-processor/ChibiOS//os/ext/CMSIS/include/core_cmFunc.h"
 147              		.loc 5 546 0
 148 0062 0023     		movs	r3, #0
 149              		.syntax unified
 150              	@ 546 "../../lib/e-puck2_main-processor/ChibiOS//os/ext/CMSIS/include/core_cmFunc.h" 1
 151 0064 83F31188 		MSR basepri, r3
 152              	@ 0 "" 2
 153              	.LVL11:
 154              		.thumb
 155              		.syntax unified
 156              	.L4:
 157              	.LBE65:
 158              	.LBE64:
 159              	.LBE63:
 160              	.LBE66:
 161              	.LBE70:
 162              	.LBE78:
 163              	.LBE81:
 164              		.loc 1 117 0 discriminator 1
 165 0068 FFF7FEFF 		bl	dcmi_capture_start
 166              	.LVL12:
 167              		.loc 1 119 0 discriminator 1
 168 006c FFF7FEFF 		bl	wait_image_ready
 169              	.LVL13:
 170              	.LBB82:
 171              	.LBB79:
ARM GAS  C:\Users\clema\AppData\Local\Temp\ccXFdU3O.s 			page 4


 172              	.LBB71:
 173              	.LBB72:
 174              	.LBB73:
 175              	.LBB74:
 176              	.LBB75:
 177              		.loc 5 546 0 discriminator 1
 178              		.syntax unified
 179              	@ 546 "../../lib/e-puck2_main-processor/ChibiOS//os/ext/CMSIS/include/core_cmFunc.h" 1
 180 0070 85F31188 		MSR basepri, r5
 181              	@ 0 "" 2
 182              	.LVL14:
 183              		.thumb
 184              		.syntax unified
 185              	.LBE75:
 186              	.LBE74:
 187              	.LBE73:
 188              		.loc 3 349 0 discriminator 1
 189 0074 FFF7FEFF 		bl	_stats_start_measure_crit_thd
 190              	.LVL15:
 191              		.loc 3 350 0 discriminator 1
 192 0078 FFF7FEFF 		bl	_dbg_check_lock
 193              	.LVL16:
 194              	.LBE72:
 195              	.LBE71:
 196              	.LBB76:
 197              	.LBB69:
 198              		.loc 4 268 0 discriminator 1
 199 007c FFF7FEFF 		bl	chDbgCheckClassI
 200              	.LVL17:
 201              		.loc 4 270 0 discriminator 1
 202 0080 B368     		ldr	r3, [r6, #8]
 203 0082 002B     		cmp	r3, #0
 204 0084 DCDC     		bgt	.L2
 205              		.loc 4 271 0
 206 0086 4046     		mov	r0, r8
 207 0088 FFF7FEFF 		bl	chSemSignalI
 208              	.LVL18:
 209 008c D8E7     		b	.L2
 210              	.L9:
 211 008e 00BF     		.align	2
 212              	.L8:
 213 0090 00000000 		.word	ch
 214 0094 00000000 		.word	__stack_chk_guard
 215 0098 00000000 		.word	.LANCHOR0
 216 009c 00000000 		.word	.LANCHOR1
 217 00a0 00000000 		.word	.LANCHOR2
 218              	.LBE69:
 219              	.LBE76:
 220              	.LBE79:
 221              	.LBE82:
 222              		.cfi_endproc
 223              	.LFE258:
 224              		.size	CaptureImage, .-CaptureImage
 225              		.section	.text.extract_line_width,"ax",%progbits
 226              		.align	1
 227              		.p2align 4,,15
 228              		.global	extract_line_width
ARM GAS  C:\Users\clema\AppData\Local\Temp\ccXFdU3O.s 			page 5


 229              		.syntax unified
 230              		.thumb
 231              		.thumb_func
 232              		.fpu fpv4-sp-d16
 233              		.type	extract_line_width, %function
 234              	extract_line_width:
 235              	.LFB257:
 236              		.loc 1 23 0
 237              		.cfi_startproc
 238              		@ args = 0, pretend = 0, frame = 8
 239              		@ frame_needed = 0, uses_anonymous_args = 0
 240              	.LVL19:
 241 0000 F0B5     		push	{r4, r5, r6, r7, lr}
 242              		.cfi_def_cfa_offset 20
 243              		.cfi_offset 4, -20
 244              		.cfi_offset 5, -16
 245              		.cfi_offset 6, -12
 246              		.cfi_offset 7, -8
 247              		.cfi_offset 14, -4
 248 0002 344C     		ldr	r4, .L39
 249 0004 83B0     		sub	sp, sp, #12
 250              		.cfi_def_cfa_offset 32
 251              		.loc 1 23 0
 252 0006 2368     		ldr	r3, [r4]
 253 0008 0193     		str	r3, [sp, #4]
 254              	.LVL20:
 255 000a 00F27F25 		addw	r5, r0, #639
 256 000e 431E     		subs	r3, r0, #1
 257              		.loc 1 27 0
 258 0010 0022     		movs	r2, #0
 259              	.LVL21:
 260              	.L11:
 261              	.LBB83:
 262              		.loc 1 33 0 discriminator 3
 263 0012 13F8011F 		ldrb	r1, [r3, #1]!	@ zero_extendqisi2
 264              		.loc 1 32 0 discriminator 3
 265 0016 9D42     		cmp	r5, r3
 266              		.loc 1 33 0 discriminator 3
 267 0018 0A44     		add	r2, r2, r1
 268              	.LVL22:
 269              		.loc 1 32 0 discriminator 3
 270 001a FAD1     		bne	.L11
 271              	.LBE83:
 272              		.loc 1 35 0
 273 001c 2E4B     		ldr	r3, .L39+4
 274 001e 0578     		ldrb	r5, [r0]	@ zero_extendqisi2
 275 0020 A3FB0232 		umull	r3, r2, r3, r2
 276              	.LVL23:
 277 0024 520A     		lsrs	r2, r2, #9
 278              	.LVL24:
 279              		.loc 1 25 0
 280 0026 0021     		movs	r1, #0
 281              		.loc 1 40 0
 282 0028 40F27A26 		movw	r6, #634
 283              	.LVL25:
 284              	.L12:
 285 002c 4B1C     		adds	r3, r1, #1
ARM GAS  C:\Users\clema\AppData\Local\Temp\ccXFdU3O.s 			page 6


 286              		.loc 1 44 0
 287 002e 9542     		cmp	r5, r2
 288 0030 9BB2     		uxth	r3, r3
 289 0032 1FD9     		bls	.L14
 290              	.L37:
 291              		.loc 1 44 0 is_stmt 0 discriminator 1
 292 0034 4518     		adds	r5, r0, r1
 293 0036 6D79     		ldrb	r5, [r5, #5]	@ zero_extendqisi2
 294 0038 9542     		cmp	r5, r2
 295 003a 1BD2     		bcs	.L14
 296              	.LVL26:
 297              		.loc 1 52 0 is_stmt 1
 298 003c B342     		cmp	r3, r6
 299 003e 25D8     		bhi	.L13
 300              		.loc 1 52 0 is_stmt 0 discriminator 1
 301 0040 21B3     		cbz	r1, .L13
 302 0042 03F1FF3C 		add	ip, r3, #-1
 303 0046 8444     		add	ip, ip, r0
 304              	.LVL27:
 305              	.L22:
 306              		.loc 1 58 0 is_stmt 1
 307 0048 1CF8015F 		ldrb	r5, [ip, #1]!	@ zero_extendqisi2
 308 004c 9542     		cmp	r5, r2
 309 004e 9FB2     		uxth	r7, r3
 310 0050 15D9     		bls	.L17
 311              		.loc 1 58 0 is_stmt 0 discriminator 1
 312 0052 1CF805EC 		ldrb	lr, [ip, #-5]	@ zero_extendqisi2
 313 0056 9645     		cmp	lr, r2
 314 0058 11D2     		bcs	.L17
 315              	.LVL28:
 316              		.loc 1 77 0 is_stmt 1
 317 005a A7EB010C 		sub	ip, r7, r1
 318 005e BCF1270F 		cmp	ip, #39
 319 0062 3B46     		mov	r3, r7
 320 0064 2ADC     		bgt	.L36
 321              	.LVL29:
 322              		.loc 1 40 0
 323 0066 B742     		cmp	r7, r6
 324 0068 10D8     		bhi	.L13
 325 006a 3946     		mov	r1, r7
 326 006c 4B1C     		adds	r3, r1, #1
 327              		.loc 1 44 0
 328 006e 9542     		cmp	r5, r2
 329 0070 9BB2     		uxth	r3, r3
 330 0072 DFD8     		bhi	.L37
 331              	.LVL30:
 332              	.L14:
 333              		.loc 1 40 0 discriminator 1
 334 0074 B342     		cmp	r3, r6
 335 0076 09D8     		bhi	.L13
 336 0078 C55C     		ldrb	r5, [r0, r3]	@ zero_extendqisi2
 337              	.LVL31:
 338              		.loc 1 40 0 is_stmt 0
 339 007a 1946     		mov	r1, r3
 340 007c D6E7     		b	.L12
 341              	.LVL32:
 342              	.L17:
ARM GAS  C:\Users\clema\AppData\Local\Temp\ccXFdU3O.s 			page 7


 343 007e 0137     		adds	r7, r7, #1
 344 0080 BFB2     		uxth	r7, r7
 345              	.LVL33:
 346              		.loc 1 56 0 is_stmt 1
 347 0082 B7F5207F 		cmp	r7, #640
 348 0086 03F10103 		add	r3, r3, #1
 349 008a DDD1     		bne	.L22
 350              	.LVL34:
 351              	.L13:
 352              		.loc 1 89 0
 353 008c 134B     		ldr	r3, .L39+8
 354 008e 1888     		ldrh	r0, [r3]
 355              	.LVL35:
 356              	.L25:
 357              		.loc 1 96 0
 358 0090 DFED136A 		vldr.32	s13, .L39+12
 359              		.loc 1 101 0
 360 0094 019A     		ldr	r2, [sp, #4]
 361 0096 2368     		ldr	r3, [r4]
 362              		.loc 1 96 0
 363 0098 07EE900A 		vmov	s15, r0	@ int
 364 009c F8EEE77A 		vcvt.f32.s32	s15, s15
 365 00a0 86EEA77A 		vdiv.f32	s14, s13, s15
 366 00a4 F3EE0E7A 		vmov.f32	s15, #3.0e+1
 367              		.loc 1 97 0
 368 00a8 B4EE677A 		vcmp.f32	s14, s15
 369 00ac F1EE10FA 		vmrs	APSR_nzcv, FPSCR
 370              		.loc 1 101 0
 371 00b0 C8BF     		it	gt
 372 00b2 7520     		movgt	r0, #117
 373              	.LVL36:
 374 00b4 9A42     		cmp	r2, r3
 375 00b6 0AD1     		bne	.L38
 376 00b8 03B0     		add	sp, sp, #12
 377              		.cfi_remember_state
 378              		.cfi_def_cfa_offset 20
 379              		@ sp needed
 380 00ba F0BD     		pop	{r4, r5, r6, r7, pc}
 381              	.LVL37:
 382              	.L36:
 383              		.cfi_restore_state
 384              		.loc 1 91 0
 385 00bc 781A     		subs	r0, r7, r1
 386              	.LVL38:
 387              		.loc 1 92 0
 388 00be 0B44     		add	r3, r3, r1
 389 00c0 084A     		ldr	r2, .L39+16
 390              	.LVL39:
 391              		.loc 1 91 0
 392 00c2 0649     		ldr	r1, .L39+8
 393 00c4 80B2     		uxth	r0, r0
 394              	.LVL40:
 395              		.loc 1 92 0
 396 00c6 5B10     		asrs	r3, r3, #1
 397              		.loc 1 91 0
 398 00c8 0880     		strh	r0, [r1]	@ movhi
 399              		.loc 1 92 0
ARM GAS  C:\Users\clema\AppData\Local\Temp\ccXFdU3O.s 			page 8


 400 00ca 1380     		strh	r3, [r2]	@ movhi
 401 00cc E0E7     		b	.L25
 402              	.LVL41:
 403              	.L38:
 404              		.loc 1 101 0
 405 00ce FFF7FEFF 		bl	__stack_chk_fail
 406              	.LVL42:
 407              	.L40:
 408 00d2 00BF     		.align	2
 409              	.L39:
 410 00d4 00000000 		.word	__stack_chk_guard
 411 00d8 CDCCCCCC 		.word	-858993459
 412 00dc 00000000 		.word	.LANCHOR3
 413 00e0 00F05C45 		.word	1163718656
 414 00e4 00000000 		.word	.LANCHOR4
 415              		.cfi_endproc
 416              	.LFE257:
 417              		.size	extract_line_width, .-extract_line_width
 418              		.section	.text.ProcessImage,"ax",%progbits
 419              		.align	1
 420              		.p2align 4,,15
 421              		.syntax unified
 422              		.thumb
 423              		.thumb_func
 424              		.fpu fpv4-sp-d16
 425              		.type	ProcessImage, %function
 426              	ProcessImage:
 427              	.LFB259:
 428              		.loc 1 127 0
 429              		.cfi_startproc
 430              		@ args = 0, pretend = 0, frame = 656
 431              		@ frame_needed = 0, uses_anonymous_args = 0
 432              	.LVL43:
 433 0000 F0B5     		push	{r4, r5, r6, r7, lr}
 434              		.cfi_def_cfa_offset 20
 435              		.cfi_offset 4, -20
 436              		.cfi_offset 5, -16
 437              		.cfi_offset 6, -12
 438              		.cfi_offset 7, -8
 439              		.cfi_offset 14, -4
 440 0002 2DED028B 		vpush.64	{d8}
 441              		.cfi_def_cfa_offset 28
 442              		.cfi_offset 80, -28
 443              		.cfi_offset 81, -24
 444              	.LBB84:
 445              	.LBB85:
 446              		.loc 2 135 0
 447 0006 1F4A     		ldr	r2, .L56
 448              	.LBE85:
 449              	.LBE84:
 450              		.loc 1 127 0
 451 0008 1F4B     		ldr	r3, .L56+4
 452              	.LBB87:
 453              	.LBB86:
 454              		.loc 2 135 0
 455 000a 9269     		ldr	r2, [r2, #24]
 456 000c 1F49     		ldr	r1, .L56+8
ARM GAS  C:\Users\clema\AppData\Local\Temp\ccXFdU3O.s 			page 9


 457 000e 9161     		str	r1, [r2, #24]
 458              	.LBE86:
 459              	.LBE87:
 460              		.loc 1 127 0
 461 0010 ADF5257D 		sub	sp, sp, #660
 462              		.cfi_def_cfa_offset 688
 463              		.loc 1 133 0
 464 0014 03AC     		add	r4, sp, #12
 465              		.loc 1 127 0
 466 0016 1B68     		ldr	r3, [r3]
 467 0018 A393     		str	r3, [sp, #652]
 468              		.loc 1 133 0
 469 001a 2046     		mov	r0, r4
 470              	.LVL44:
 471 001c 4FF42072 		mov	r2, #640
 472 0020 0021     		movs	r1, #0
 473 0022 FFF7FEFF 		bl	memset
 474              	.LVL45:
 475 0026 1A4F     		ldr	r7, .L56+12
 476              	.LBB88:
 477              	.LBB89:
 478              		.loc 4 143 0
 479 0028 1A4E     		ldr	r6, .L56+16
 480              	.LBE89:
 481              	.LBE88:
 482              		.loc 1 205 0
 483 002a 9FED1B8A 		vldr.32	s16, .L56+20
 484              		.loc 1 136 0
 485 002e 0125     		movs	r5, #1
 486              	.LVL46:
 487              	.L45:
 488              	.LBB91:
 489              	.LBB90:
 490              		.loc 4 143 0
 491 0030 3046     		mov	r0, r6
 492 0032 FFF7FEFF 		bl	chSemWait
 493              	.LVL47:
 494              	.LBE90:
 495              	.LBE91:
 496              		.loc 1 187 0
 497 0036 FFF7FEFF 		bl	dcmi_enable_double_buffering
 498              	.LVL48:
 499              		.loc 1 189 0
 500 003a FFF7FEFF 		bl	dcmi_get_second_buffer_ptr
 501              	.LVL49:
 502 003e 0023     		movs	r3, #0
 503              	.LVL50:
 504              	.L42:
 505              	.LBB92:
 506              		.loc 1 195 0 discriminator 3
 507 0040 C25C     		ldrb	r2, [r0, r3]	@ zero_extendqisi2
 508 0042 C3F34E01 		ubfx	r1, r3, #1, #15
 509 0046 0233     		adds	r3, r3, #2
 510              	.LVL51:
 511 0048 02F01F02 		and	r2, r2, #31
 512              		.loc 1 192 0 discriminator 3
 513 004c B3F5A06F 		cmp	r3, #1280
ARM GAS  C:\Users\clema\AppData\Local\Temp\ccXFdU3O.s 			page 10


 514              		.loc 1 195 0 discriminator 3
 515 0050 6254     		strb	r2, [r4, r1]
 516              		.loc 1 192 0 discriminator 3
 517 0052 F5D1     		bne	.L42
 518              	.LBE92:
 519              		.loc 1 201 0
 520 0054 2046     		mov	r0, r4
 521              	.LVL52:
 522 0056 FFF7FEFF 		bl	extract_line_width
 523              	.LVL53:
 524              		.loc 1 204 0
 525 005a 0190     		str	r0, [sp, #4]
 526 005c 38B1     		cbz	r0, .L43
 527              		.loc 1 205 0
 528 005e 07EE900A 		vmov	s15, r0	@ int
 529 0062 F8EEE77A 		vcvt.f32.s32	s15, s15
 530 0066 88EE277A 		vdiv.f32	s14, s16, s15
 531 006a 87ED007A 		vstr.32	s14, [r7]
 532              	.L43:
 533              		.loc 1 208 0
 534 006e 15B9     		cbnz	r5, .L55
 535              	.LVL54:
 536              	.L44:
 537              		.loc 1 213 0
 538 0070 85F00105 		eor	r5, r5, #1
 539              	.LVL55:
 540              		.loc 1 140 0
 541 0074 DCE7     		b	.L45
 542              	.LVL56:
 543              	.L55:
 544              		.loc 1 210 0
 545 0076 4FF42071 		mov	r1, #640
 546 007a 2046     		mov	r0, r4
 547              	.LVL57:
 548 007c FFF7FEFF 		bl	SendUint8ToComputer
 549              	.LVL58:
 550 0080 F6E7     		b	.L44
 551              	.L57:
 552 0082 00BF     		.align	2
 553              	.L56:
 554 0084 00000000 		.word	ch
 555 0088 00000000 		.word	__stack_chk_guard
 556 008c 00000000 		.word	.LANCHOR5
 557 0090 00000000 		.word	.LANCHOR6
 558 0094 00000000 		.word	.LANCHOR1
 559 0098 00F05C45 		.word	1163718656
 560              		.cfi_endproc
 561              	.LFE259:
 562              		.size	ProcessImage, .-ProcessImage
 563              		.section	.text.get_distance_cm,"ax",%progbits
 564              		.align	1
 565              		.p2align 4,,15
 566              		.global	get_distance_cm
 567              		.syntax unified
 568              		.thumb
 569              		.thumb_func
 570              		.fpu fpv4-sp-d16
ARM GAS  C:\Users\clema\AppData\Local\Temp\ccXFdU3O.s 			page 11


 571              		.type	get_distance_cm, %function
 572              	get_distance_cm:
 573              	.LFB260:
 574              		.loc 1 218 0
 575              		.cfi_startproc
 576              		@ args = 0, pretend = 0, frame = 8
 577              		@ frame_needed = 0, uses_anonymous_args = 0
 578 0000 00B5     		push	{lr}
 579              		.cfi_def_cfa_offset 4
 580              		.cfi_offset 14, -4
 581 0002 084B     		ldr	r3, .L62
 582              		.loc 1 219 0
 583 0004 0849     		ldr	r1, .L62+4
 584              		.loc 1 218 0
 585 0006 1A68     		ldr	r2, [r3]
 586              		.loc 1 220 0
 587 0008 91ED000A 		vldr.32	s0, [r1]
 588              		.loc 1 218 0
 589 000c 83B0     		sub	sp, sp, #12
 590              		.cfi_def_cfa_offset 16
 591              		.loc 1 218 0
 592 000e 0192     		str	r2, [sp, #4]
 593              		.loc 1 220 0
 594 0010 019A     		ldr	r2, [sp, #4]
 595 0012 1B68     		ldr	r3, [r3]
 596 0014 9A42     		cmp	r2, r3
 597 0016 02D1     		bne	.L61
 598 0018 03B0     		add	sp, sp, #12
 599              		.cfi_remember_state
 600              		.cfi_def_cfa_offset 4
 601              		@ sp needed
 602 001a 5DF804FB 		ldr	pc, [sp], #4
 603              	.L61:
 604              		.cfi_restore_state
 605 001e FFF7FEFF 		bl	__stack_chk_fail
 606              	.LVL59:
 607              	.L63:
 608 0022 00BF     		.align	2
 609              	.L62:
 610 0024 00000000 		.word	__stack_chk_guard
 611 0028 00000000 		.word	.LANCHOR6
 612              		.cfi_endproc
 613              	.LFE260:
 614              		.size	get_distance_cm, .-get_distance_cm
 615              		.section	.text.get_line_position,"ax",%progbits
 616              		.align	1
 617              		.p2align 4,,15
 618              		.global	get_line_position
 619              		.syntax unified
 620              		.thumb
 621              		.thumb_func
 622              		.fpu fpv4-sp-d16
 623              		.type	get_line_position, %function
 624              	get_line_position:
 625              	.LFB261:
 626              		.loc 1 222 0
 627              		.cfi_startproc
ARM GAS  C:\Users\clema\AppData\Local\Temp\ccXFdU3O.s 			page 12


 628              		@ args = 0, pretend = 0, frame = 8
 629              		@ frame_needed = 0, uses_anonymous_args = 0
 630 0000 00B5     		push	{lr}
 631              		.cfi_def_cfa_offset 4
 632              		.cfi_offset 14, -4
 633 0002 074B     		ldr	r3, .L68
 634              		.loc 1 223 0
 635 0004 0749     		ldr	r1, .L68+4
 636              		.loc 1 222 0
 637 0006 1A68     		ldr	r2, [r3]
 638              		.loc 1 224 0
 639 0008 0888     		ldrh	r0, [r1]
 640              		.loc 1 222 0
 641 000a 83B0     		sub	sp, sp, #12
 642              		.cfi_def_cfa_offset 16
 643              		.loc 1 222 0
 644 000c 0192     		str	r2, [sp, #4]
 645              		.loc 1 224 0
 646 000e 019A     		ldr	r2, [sp, #4]
 647 0010 1B68     		ldr	r3, [r3]
 648 0012 9A42     		cmp	r2, r3
 649 0014 02D1     		bne	.L67
 650 0016 03B0     		add	sp, sp, #12
 651              		.cfi_remember_state
 652              		.cfi_def_cfa_offset 4
 653              		@ sp needed
 654 0018 5DF804FB 		ldr	pc, [sp], #4
 655              	.L67:
 656              		.cfi_restore_state
 657 001c FFF7FEFF 		bl	__stack_chk_fail
 658              	.LVL60:
 659              	.L69:
 660              		.align	2
 661              	.L68:
 662 0020 00000000 		.word	__stack_chk_guard
 663 0024 00000000 		.word	.LANCHOR4
 664              		.cfi_endproc
 665              	.LFE261:
 666              		.size	get_line_position, .-get_line_position
 667              		.section	.text.process_image_start,"ax",%progbits
 668              		.align	1
 669              		.p2align 4,,15
 670              		.global	process_image_start
 671              		.syntax unified
 672              		.thumb
 673              		.thumb_func
 674              		.fpu fpv4-sp-d16
 675              		.type	process_image_start, %function
 676              	process_image_start:
 677              	.LFB262:
 678              		.loc 1 226 0
 679              		.cfi_startproc
 680              		@ args = 0, pretend = 0, frame = 8
 681              		@ frame_needed = 0, uses_anonymous_args = 0
 682 0000 30B5     		push	{r4, r5, lr}
 683              		.cfi_def_cfa_offset 12
 684              		.cfi_offset 4, -12
ARM GAS  C:\Users\clema\AppData\Local\Temp\ccXFdU3O.s 			page 13


 685              		.cfi_offset 5, -8
 686              		.cfi_offset 14, -4
 687 0002 0E4C     		ldr	r4, .L74
 688              		.loc 1 227 0
 689 0004 0E4B     		ldr	r3, .L74+4
 690              		.loc 1 226 0
 691 0006 2268     		ldr	r2, [r4]
 692              		.loc 1 227 0
 693 0008 0E48     		ldr	r0, .L74+8
 694              		.loc 1 226 0
 695 000a 85B0     		sub	sp, sp, #20
 696              		.cfi_def_cfa_offset 32
 697              		.loc 1 227 0
 698 000c 0025     		movs	r5, #0
 699              		.loc 1 226 0
 700 000e 0392     		str	r2, [sp, #12]
 701              		.loc 1 227 0
 702 0010 4FF4AF61 		mov	r1, #1400
 703 0014 4022     		movs	r2, #64
 704 0016 0095     		str	r5, [sp]
 705 0018 FFF7FEFF 		bl	chThdCreateStatic
 706              	.LVL61:
 707              		.loc 1 228 0
 708 001c 0A4B     		ldr	r3, .L74+12
 709 001e 0095     		str	r5, [sp]
 710 0020 4022     		movs	r2, #64
 711 0022 0A48     		ldr	r0, .L74+16
 712 0024 4FF41E71 		mov	r1, #632
 713 0028 FFF7FEFF 		bl	chThdCreateStatic
 714              	.LVL62:
 715              		.loc 1 229 0
 716 002c 039A     		ldr	r2, [sp, #12]
 717 002e 2368     		ldr	r3, [r4]
 718 0030 9A42     		cmp	r2, r3
 719 0032 01D1     		bne	.L73
 720 0034 05B0     		add	sp, sp, #20
 721              		.cfi_remember_state
 722              		.cfi_def_cfa_offset 12
 723              		@ sp needed
 724 0036 30BD     		pop	{r4, r5, pc}
 725              	.L73:
 726              		.cfi_restore_state
 727 0038 FFF7FEFF 		bl	__stack_chk_fail
 728              	.LVL63:
 729              	.L75:
 730              		.align	2
 731              	.L74:
 732 003c 00000000 		.word	__stack_chk_guard
 733 0040 00000000 		.word	ProcessImage
 734 0044 00000000 		.word	.LANCHOR7
 735 0048 00000000 		.word	CaptureImage
 736 004c 00000000 		.word	.LANCHOR8
 737              		.cfi_endproc
 738              	.LFE262:
 739              		.size	process_image_start, .-process_image_start
 740              		.section	.bss.distance_cm,"aw",%nobits
 741              		.align	2
ARM GAS  C:\Users\clema\AppData\Local\Temp\ccXFdU3O.s 			page 14


 742              		.set	.LANCHOR6,. + 0
 743              		.type	distance_cm, %object
 744              		.size	distance_cm, 4
 745              	distance_cm:
 746 0000 00000000 		.space	4
 747              		.section	.bss.waCaptureImage,"aw",%nobits
 748              		.align	3
 749              		.set	.LANCHOR8,. + 0
 750              		.type	waCaptureImage, %object
 751              		.size	waCaptureImage, 632
 752              	waCaptureImage:
 753 0000 00000000 		.space	632
 753      00000000 
 753      00000000 
 753      00000000 
 753      00000000 
 754              		.section	.bss.waProcessImage,"aw",%nobits
 755              		.align	3
 756              		.set	.LANCHOR7,. + 0
 757              		.type	waProcessImage, %object
 758              		.size	waProcessImage, 1400
 759              	waProcessImage:
 760 0000 00000000 		.space	1400
 760      00000000 
 760      00000000 
 760      00000000 
 760      00000000 
 761              		.section	.data.image_ready_sem,"aw",%progbits
 762              		.align	2
 763              		.set	.LANCHOR1,. + 0
 764              		.type	image_ready_sem, %object
 765              		.size	image_ready_sem, 12
 766              	image_ready_sem:
 767 0000 00000000 		.word	image_ready_sem
 768 0004 00000000 		.word	image_ready_sem
 769 0008 00000000 		.word	0
 770              		.section	.data.last_width.11341,"aw",%progbits
 771              		.align	1
 772              		.set	.LANCHOR3,. + 0
 773              		.type	last_width.11341, %object
 774              		.size	last_width.11341, 2
 775              	last_width.11341:
 776 0000 6101     		.short	353
 777              		.section	.data.line_position,"aw",%progbits
 778              		.align	1
 779              		.set	.LANCHOR4,. + 0
 780              		.type	line_position, %object
 781              		.size	line_position, 2
 782              	line_position:
 783 0000 4001     		.short	320
 784              		.section	.rodata.__FUNCTION__.11358,"a",%progbits
 785              		.align	2
 786              		.set	.LANCHOR0,. + 0
 787              		.type	__FUNCTION__.11358, %object
 788              		.size	__FUNCTION__.11358, 13
 789              	__FUNCTION__.11358:
 790 0000 43617074 		.ascii	"CaptureImage\000"
ARM GAS  C:\Users\clema\AppData\Local\Temp\ccXFdU3O.s 			page 15


 790      75726549 
 790      6D616765 
 790      00
 791              		.section	.rodata.__FUNCTION__.11364,"a",%progbits
 792              		.align	2
 793              		.set	.LANCHOR5,. + 0
 794              		.type	__FUNCTION__.11364, %object
 795              		.size	__FUNCTION__.11364, 13
 796              	__FUNCTION__.11364:
 797 0000 50726F63 		.ascii	"ProcessImage\000"
 797      65737349 
 797      6D616765 
 797      00
 798              		.section	.rodata.__func__.7153,"a",%progbits
 799              		.align	2
 800              		.set	.LANCHOR2,. + 0
 801              		.type	__func__.7153, %object
 802              		.size	__func__.7153, 12
 803              	__func__.7153:
 804 0000 63685379 		.ascii	"chSysUnlock\000"
 804      73556E6C 
 804      6F636B00 
 805              		.text
 806              	.Letext0:
 807              		.file 6 "c:\\users\\clema\\desktop\\eclipse_e-puck2\\tools\\gcc-arm-none-eabi-7-2017-q4-major-win3
 808              		.file 7 "c:\\users\\clema\\desktop\\eclipse_e-puck2\\tools\\gcc-arm-none-eabi-7-2017-q4-major-win3
 809              		.file 8 "c:\\users\\clema\\desktop\\eclipse_e-puck2\\tools\\gcc-arm-none-eabi-7-2017-q4-major-win3
 810              		.file 9 "../../lib/e-puck2_main-processor/ChibiOS//os/rt/ports/ARMCMx/compilers/GCC/chtypes.h"
 811              		.file 10 "../../lib/e-puck2_main-processor/ChibiOS//os/rt/include/chsystypes.h"
 812              		.file 11 "../../lib/e-puck2_main-processor/ChibiOS//os/rt/include/chschd.h"
 813              		.file 12 "../../lib/e-puck2_main-processor/ChibiOS//os/ext/CMSIS/include/core_cm4.h"
 814              		.file 13 "../../lib/e-puck2_main-processor/ChibiOS//os/ext/CMSIS/ST/system_stm32f4xx.h"
 815              		.file 14 "../../lib/e-puck2_main-processor/ChibiOS//os/ext/CMSIS/ST/stm32f407xx.h"
 816              		.file 15 "../../lib/e-puck2_main-processor/ChibiOS//os/rt/ports/ARMCMx/chcore.h"
 817              		.file 16 "../../lib/e-puck2_main-processor/ChibiOS//os/rt/ports/ARMCMx/chcore_v7m.h"
 818              		.file 17 "../../lib/e-puck2_main-processor/ChibiOS//os/rt/include/chdebug.h"
 819              		.file 18 "../../lib/e-puck2_main-processor/ChibiOS//os/rt/include/chtm.h"
 820              		.file 19 "../../lib/e-puck2_main-processor/ChibiOS//os/rt/include/chstats.h"
 821              		.file 20 "../../lib/e-puck2_main-processor/ChibiOS//os/rt/include/chsem.h"
 822              		.file 21 "../../lib/e-puck2_main-processor/ChibiOS//os/rt/include/chmtx.h"
 823              		.file 22 "../../lib/e-puck2_main-processor/ChibiOS//os/rt/include/chevents.h"
 824              		.file 23 "../../lib/e-puck2_main-processor/ChibiOS//os/rt/include/chqueues.h"
 825              		.file 24 "../../lib/e-puck2_main-processor/ChibiOS//os/hal/ports/STM32/STM32F4xx/stm32_dma.h"
 826              		.file 25 "../../lib/e-puck2_main-processor/ChibiOS//os/hal/include/hal_ioblock.h"
 827              		.file 26 "../../lib/e-puck2_main-processor/ChibiOS//os/hal/ports/STM32/LLD/GPIOv2/pal_lld.h"
 828              		.file 27 "../../lib/e-puck2_main-processor/ChibiOS//os/hal/include/adc.h"
 829              		.file 28 "../../lib/e-puck2_main-processor/ChibiOS//os/hal/ports/STM32/STM32F4xx/adc_lld.h"
 830              		.file 29 "../../lib/e-puck2_main-processor/ChibiOS//os/hal/include/can.h"
 831              		.file 30 "../../lib/e-puck2_main-processor/ChibiOS//os/hal/ports/STM32/LLD/can_lld.h"
 832              		.file 31 "../../lib/e-puck2_main-processor/ChibiOS//os/hal/include/dac.h"
 833              		.file 32 "../../lib/e-puck2_main-processor/ChibiOS//os/hal/ports/STM32/LLD/DACv1/dac_lld.h"
 834              		.file 33 "../../lib/e-puck2_main-processor/ChibiOS//os/hal/include/ext.h"
 835              		.file 34 "../../lib/e-puck2_main-processor/ChibiOS//os/hal/ports/STM32/LLD/ext_lld.h"
 836              		.file 35 "../../lib/e-puck2_main-processor/ChibiOS//os/hal/include/gpt.h"
 837              		.file 36 "../../lib/e-puck2_main-processor/ChibiOS//os/hal/ports/STM32/LLD/TIMv1/gpt_lld.h"
 838              		.file 37 "../../lib/e-puck2_main-processor/ChibiOS//os/hal/ports/STM32/LLD/TIMv1/stm32_tim.h"
 839              		.file 38 "../../lib/e-puck2_main-processor/ChibiOS//os/hal/include/i2c.h"
ARM GAS  C:\Users\clema\AppData\Local\Temp\ccXFdU3O.s 			page 16


 840              		.file 39 "../../lib/e-puck2_main-processor/ChibiOS//os/hal/ports/STM32/LLD/I2Cv1/i2c_lld.h"
 841              		.file 40 "../../lib/e-puck2_main-processor/ChibiOS//os/hal/include/i2s.h"
 842              		.file 41 "../../lib/e-puck2_main-processor/ChibiOS//os/hal/ports/STM32/LLD/SPIv1/i2s_lld.h"
 843              		.file 42 "../../lib/e-puck2_main-processor/ChibiOS//os/hal/include/pwm.h"
 844              		.file 43 "../../lib/e-puck2_main-processor/ChibiOS//os/hal/ports/STM32/LLD/TIMv1/pwm_lld.h"
 845              		.file 44 "../../lib/e-puck2_main-processor/ChibiOS//os/hal/include/serial.h"
 846              		.file 45 "../../lib/e-puck2_main-processor/ChibiOS//os/hal/ports/STM32/LLD/USARTv1/serial_lld.h"
 847              		.file 46 "../../lib/e-puck2_main-processor/ChibiOS//os/hal/include/sdc.h"
 848              		.file 47 "../../lib/e-puck2_main-processor/ChibiOS//os/hal/ports/STM32/LLD/sdc_lld.h"
 849              		.file 48 "../../lib/e-puck2_main-processor/ChibiOS//os/hal/include/spi.h"
 850              		.file 49 "../../lib/e-puck2_main-processor/ChibiOS//os/hal/ports/STM32/LLD/SPIv1/spi_lld.h"
 851              		.file 50 "../../lib/e-puck2_main-processor/ChibiOS//os/hal/include/usb.h"
 852              		.file 51 "../../lib/e-puck2_main-processor/ChibiOS//os/hal/ports/STM32/LLD/OTGv1/usb_lld.h"
 853              		.file 52 "../../lib/e-puck2_main-processor/ChibiOS//os/hal/ports/STM32/LLD/OTGv1/stm32_otg.h"
 854              		.file 53 "../../lib/e-puck2_main-processor/ChibiOS//os/hal/include/serial_usb.h"
 855              		.file 54 "../../lib/e-puck2_main-processor/src/usbcfg.h"
 856              		.file 55 "../../lib/e-puck2_main-processor/ChibiOS_ext/os/hal/include/../ports/STM32/STM32F4xx/dcm
 857              		.file 56 "../../lib/e-puck2_main-processor/src/camera/po8030.h"
 858              		.file 57 "../../lib/e-puck2_main-processor/src/camera/dcmi_camera.h"
 859              		.file 58 "c:\\users\\clema\\desktop\\eclipse_e-puck2\\tools\\gcc-arm-none-eabi-7-2017-q4-major-win
 860              		.file 59 "c:\\users\\clema\\desktop\\eclipse_e-puck2\\tools\\gcc-arm-none-eabi-7-2017-q4-major-win
 861              		.file 60 "c:\\users\\clema\\desktop\\eclipse_e-puck2\\tools\\gcc-arm-none-eabi-7-2017-q4-major-win
 862              		.file 61 "../../lib/e-puck2_main-processor/src/msgbus/messagebus.h"
 863              		.file 62 "c:\\users\\clema\\desktop\\eclipse_e-puck2\\tools\\gcc-arm-none-eabi-7-2017-q4-major-win
 864              		.file 63 "c:\\users\\clema\\desktop\\eclipse_e-puck2\\tools\\gcc-arm-none-eabi-7-2017-q4-major-win
 865              		.file 64 "../../lib/e-puck2_main-processor/src/parameter/parameter.h"
 866              		.file 65 "./main.h"
 867              		.file 66 "../../lib/e-puck2_main-processor/ChibiOS//os/rt/include/chthreads.h"
 868              		.file 67 "<built-in>"